

Microchip MPLAB XC8 Assembler V2.45 build 20230818022343 
                                                                                               Tue Feb 04 12:03:06 2025

Microchip MPLAB XC8 C Compiler v2.45 (Free license) build 20230818022343 Og1 
     1                           	processor	18F25K80
     2                           	fnconf	rparam,??,?,0
     3                           	pagewidth 120
     4                           	opt	flic
     5                           	psect	nvCOMRAM,global,class=COMRAM,space=1,delta=1,lowdata,noexec
     6                           	psect	smallconst,global,reloc=2,class=SMALLCONST,delta=1,noexec
     7                           	psect	cinit,global,reloc=2,class=CODE,delta=1
     8                           	psect	bssCOMRAM,global,class=COMRAM,space=1,delta=1,lowdata,noexec
     9                           	psect	bssBANK0,global,class=BANK0,space=1,delta=1,lowdata,noexec
    10                           	psect	cstackCOMRAM,global,class=COMRAM,space=1,delta=1,lowdata,noexec
    11                           	psect	text0,global,reloc=2,class=CODE,delta=1
    12                           	psect	text1,global,reloc=2,class=CODE,delta=1
    13                           	psect	text2,global,reloc=2,class=CODE,delta=1,group=2
    14                           	psect	text3,global,reloc=2,class=CODE,delta=1,group=2
    15                           	psect	text4,global,reloc=2,class=CODE,delta=1,group=2
    16                           	psect	text5,global,reloc=2,class=CODE,delta=1,group=2
    17                           	psect	text6,global,reloc=2,class=CODE,delta=1,group=3
    18                           	psect	text7,global,reloc=2,class=CODE,delta=1,group=1
    19                           	psect	text8,global,reloc=2,class=CODE,delta=1,group=1
    20                           	psect	text9,global,reloc=2,class=CODE,delta=1,group=3
    21                           	psect	text10,global,reloc=2,class=CODE,delta=1
    22                           	psect	text11,global,reloc=2,class=CODE,delta=1
    23                           	psect	text12,global,reloc=2,class=CODE,delta=1
    24                           	psect	text13,global,reloc=2,class=CODE,delta=1
    25                           	psect	text14,global,reloc=2,class=CODE,delta=1
    26                           	psect	text15,global,reloc=2,class=CODE,delta=1
    27                           	psect	text16,global,reloc=2,class=CODE,delta=1
    28                           	psect	text17,global,reloc=2,class=CODE,delta=1
    29                           	psect	text18,global,reloc=2,class=CODE,delta=1
    30                           	psect	text19,global,reloc=2,class=CODE,delta=1
    31                           	psect	text20,global,reloc=2,class=CODE,delta=1
    32                           	psect	text21,global,reloc=2,class=CODE,delta=1
    33                           	psect	text22,global,reloc=2,class=CODE,delta=1
    34                           	psect	intsave_regs,global,class=BIGRAM,space=1,delta=1,noexec
    35                           	psect	rparam,global,class=COMRAM,space=1,delta=1,noexec
    36                           	psect	config,global,abs,ovrld,class=CONFIG,space=4,delta=1,noexec
    37   000000                     
    38                           ; Generated 21/07/2023 GMT
    39                           ; 
    40                           ; Copyright Â© 2023, Microchip Technology Inc. and its subsidiaries ("Microchip")
    41                           ; All rights reserved.
    42                           ; 
    43                           ; This software is developed by Microchip Technology Inc. and its subsidiaries ("Microch
      +                          ip").
    44                           ; 
    45                           ; Redistribution and use in source and binary forms, with or without modification, are
    46                           ; permitted provided that the following conditions are met:
    47                           ; 
    48                           ;     1. Redistributions of source code must retain the above copyright notice, this lis
      +                          t of
    49                           ;        conditions and the following disclaimer.
    50                           ; 
    51                           ;     2. Redistributions in binary form must reproduce the above copyright notice, this 
      +                          list
    52                           ;        of conditions and the following disclaimer in the documentation and/or other
    53                           ;        materials provided with the distribution. Publication is not required when
    54                           ;        this file is used in an embedded application.
    55                           ; 
    56                           ;     3. Microchip's name may not be used to endorse or promote products derived from th
      +                          is
    57                           ;        software without specific prior written permission.
    58                           ; 
    59                           ; THIS SOFTWARE IS PROVIDED BY MICROCHIP "AS IS" AND ANY EXPRESS OR IMPLIED WARRANTIES,
    60                           ; INCLUDING, BUT NOT LIMITED TO, THE IMPLIED WARRANTIES OF MERCHANTABILITY AND FITNESS F
      +                          OR
    61                           ; PURPOSE ARE DISCLAIMED.  IN NO EVENT SHALL MICROCHIP BE LIABLE FOR ANY DIRECT, INDIREC
      +                          T,
    62                           ; INCIDENTAL, SPECIAL, EXEMPLARY, OR CONSEQUENTIAL DAMAGES (INCLUDING BUT NOT LIMITED TO
    63                           ; PROCUREMENT OF SUBSTITUTE GOODS OR SERVICES; LOSS OF USE, DATA OR PROFITS; OR BUSINESS
    64                           ; INTERRUPTION) HOWSOEVER CAUSED AND ON ANY THEORY OF LIABILITY, WHETHER IN CONTRACT, ST
      +                          RICT
    65                           ; LIABILITY, OR TORT (INCLUDING NEGLIGENCE OR OTHERWISE) ARISING IN ANY WAY OUT OF THE U
      +                          SE OF
    66                           ; THIS SOFTWARE, EVEN IF ADVISED OF THE POSSIBILITY OF SUCH DAMAGE.
    67                           ; 
    68                           ; 
    69                           ; Code-generator required, PIC18F25K80 Definitions
    70                           ; 
    71                           ; SFR Addresses
    72   000000                     
    73 ;; Function _EUSART1_DefaultFramingErrorHandler is unused but had its address taken
    74   000000                     
    75 ;; Function _EUSART1_DefaultOverrunErrorHandler is unused but had its address taken
    76   000000                     
    77 ;; Function _EUSART1_DefaultErrorHandler is unused but had its address taken
    78   000000                     _REFOCON	set	3994
    79   000000                     _OSCTUNE	set	3995
    80   000000                     _TXREG1	set	4013
    81   000000                     _RCREG1	set	4014
    82   000000                     _PIR1bits	set	3998
    83   000000                     _SPBRG1	set	4015
    84   000000                     _TXSTA1	set	4012
    85   000000                     _BAUDCON1	set	4007
    86                           
    87                           	psect	nvCOMRAM
    88   000045                     __pnvCOMRAM:
    89                           	callstack 0
    90   000045                     _EUSART1_ErrorHandler:
    91                           	callstack 0
    92   000045                     	ds	2
    93   000047                     _EUSART1_OverrunErrorHandler:
    94                           	callstack 0
    95   000047                     	ds	2
    96   000049                     _EUSART1_FramingErrorHandler:
    97                           	callstack 0
    98   000049                     	ds	2
    99   000000                     _T2CONbits	set	4042
   100   000000                     _RCSTA1bits	set	4011
   101   000000                     _TXSTA1bits	set	4012
   102   000000                     _CCP2CON	set	3920
   103   000000                     _WPUB	set	3931
   104   000000                     _ANCON1	set	3932
   105   000000                     _ANCON0	set	3933
   106   000000                     _SPBRGH1	set	3965
   107   000000                     _CCPTMRSbits	set	3993
   108   000000                     _CCPR2H	set	3922
   109   000000                     _CCPR2L	set	3921
   110   000000                     _RCSTA1	set	4011
   111   000000                     _T2CON	set	4042
   112   000000                     _PR2	set	4043
   113   000000                     _LATA	set	3977
   114   000000                     _OSCCON2	set	4050
   115   000000                     _OSCCON	set	4051
   116   000000                     _TMR2	set	4044
   117   000000                     _INTCON2bits	set	4081
   118   000000                     _TRISA	set	3986
   119   000000                     _LATC	set	3979
   120   000000                     _LATB	set	3978
   121   000000                     _TRISC	set	3988
   122   000000                     _TRISB	set	3987
   123   000000                     _INTCONbits	set	4082
   124                           
   125                           	psect	smallconst
   126   000F00                     __psmallconst:
   127                           	callstack 0
   128   000F00  00                 	db	0
   129   000F01                     STR_1:
   130   000F01  0D                 	db	13
   131   000F02  0A                 	db	10
   132   000F03  20                 	db	32
   133   000F04  76                 	db	118	;'v'
   134   000F05  6F                 	db	111	;'o'
   135   000F06  75                 	db	117	;'u'
   136   000F07  6C                 	db	108	;'l'
   137   000F08  65                 	db	101	;'e'
   138   000F09  7A                 	db	122	;'z'
   139   000F0A  20                 	db	32
   140   000F0B  76                 	db	118	;'v'
   141   000F0C  6F                 	db	111	;'o'
   142   000F0D  75                 	db	117	;'u'
   143   000F0E  73                 	db	115	;'s'
   144   000F0F  20                 	db	32
   145   000F10  62                 	db	98	;'b'
   146   000F11  61                 	db	97	;'a'
   147   000F12  72                 	db	114	;'r'
   148   000F13  72                 	db	114	;'r'
   149   000F14  65                 	db	101	;'e'
   150   000F15  72                 	db	114	;'r'
   151   000F16  20                 	db	32
   152   000F17  28                 	db	40
   153   000F18  4C                 	db	76	;'L'
   154   000F19  29                 	db	41
   155   000F1A  20                 	db	32
   156   000F1B  6F                 	db	111	;'o'
   157   000F1C  75                 	db	117	;'u'
   158   000F1D  20                 	db	32
   159   000F1E  64                 	db	100	;'d'
   160   000F1F  E9                 	db	-23
   161   000F20  62                 	db	98	;'b'
   162   000F21  61                 	db	97	;'a'
   163   000F22  72                 	db	114	;'r'
   164   000F23  72                 	db	114	;'r'
   165   000F24  65                 	db	101	;'e'
   166   000F25  72                 	db	114	;'r'
   167   000F26  20                 	db	32
   168   000F27  28                 	db	40
   169   000F28  55                 	db	85	;'U'
   170   000F29  29                 	db	41
   171   000F2A  20                 	db	32
   172   000F2B  6C                 	db	108	;'l'
   173   000F2C  61                 	db	97	;'a'
   174   000F2D  20                 	db	32
   175   000F2E  70                 	db	112	;'p'
   176   000F2F  6F                 	db	111	;'o'
   177   000F30  72                 	db	114	;'r'
   178   000F31  74                 	db	116	;'t'
   179   000F32  65                 	db	101	;'e'
   180   000F33  3F                 	db	63	;'?'
   181   000F34  00                 	db	0
   182   000F35  00                 	db	0	; dummy byte at the end
   183   000000                     
   184                           ; #config settings
   185                           
   186                           	psect	cinit
   187   001D4A                     __pcinit:
   188                           	callstack 0
   189   001D4A                     start_initialization:
   190                           	callstack 0
   191   001D4A                     __initialization:
   192                           	callstack 0
   193                           
   194                           ; Clear objects allocated to BANK0 (32 bytes)
   195   001D4A  EE00  F060         	lfsr	0,__pbssBANK0
   196   001D4E  0E20               	movlw	32
   197   001D50                     clear_0:
   198   001D50  6AEE               	clrf	postinc0,c
   199   001D52  06E8               	decf	wreg,f,c
   200   001D54  E1FD               	bnz	clear_0
   201                           
   202                           ; Clear objects allocated to COMRAM (6 bytes)
   203   001D56  6A50               	clrf	(__pbssCOMRAM+5)& (0+255),c
   204   001D58  6A4F               	clrf	(__pbssCOMRAM+4)& (0+255),c
   205   001D5A  6A4E               	clrf	(__pbssCOMRAM+3)& (0+255),c
   206   001D5C  6A4D               	clrf	(__pbssCOMRAM+2)& (0+255),c
   207   001D5E  6A4C               	clrf	(__pbssCOMRAM+1)& (0+255),c
   208   001D60  6A4B               	clrf	__pbssCOMRAM& (0+255),c
   209   001D62                     end_of_initialization:
   210                           	callstack 0
   211   001D62                     __end_of__initialization:
   212                           	callstack 0
   213   001D62  0E00               	movlw	low (__Lmediumconst shr (0+16))
   214   001D64  6EF8               	movwf	tblptru,c
   215   001D66  0100               	movlb	0
   216   001D68  EF90  F00D         	goto	_main	;jump to C main() function
   217                           
   218                           	psect	bssCOMRAM
   219   00004B                     __pbssCOMRAM:
   220                           	callstack 0
   221   00004B                     _width:
   222                           	callstack 0
   223   00004B                     	ds	2
   224   00004D                     _prec:
   225                           	callstack 0
   226   00004D                     	ds	2
   227   00004F                     _flags:
   228                           	callstack 0
   229   00004F                     	ds	1
   230   000050                     _eusart1RxLastError:
   231                           	callstack 0
   232   000050                     	ds	1
   233                           
   234                           	psect	bssBANK0
   235   000060                     __pbssBANK0:
   236                           	callstack 0
   237   000060                     	ds	32
   238                           
   239                           	psect	cstackCOMRAM
   240   000001                     __pcstackCOMRAM:
   241                           	callstack 0
   242   000001                     ?___fldiv:
   243                           	callstack 0
   244   000001                     ?___fltol:
   245                           	callstack 0
   246   000001                     EUSART1_Write@txData:
   247                           	callstack 0
   248   000001                     PWM2_LoadDutyValue@dutyValue:
   249                           	callstack 0
   250   000001                     EUSART1_SetFramingErrorHandler@interruptHandler:
   251                           	callstack 0
   252   000001                     EUSART1_SetOverrunErrorHandler@interruptHandler:
   253                           	callstack 0
   254   000001                     EUSART1_SetErrorHandler@interruptHandler:
   255                           	callstack 0
   256   000001                     ___flge@ff1:
   257                           	callstack 0
   258   000001                     ___fltol@f1:
   259                           	callstack 0
   260   000001                     ___fldiv@b:
   261                           	callstack 0
   262                           
   263                           ; 4 bytes @ 0x0
   264   000001                     	ds	1
   265   000002                     putch@txData:
   266                           	callstack 0
   267                           
   268                           ; 1 bytes @ 0x1
   269   000002                     	ds	1
   270   000003                     ??_PWM2_LoadDutyValue:
   271   000003                     fputc@c:
   272                           	callstack 0
   273                           
   274                           ; 2 bytes @ 0x2
   275   000003                     	ds	2
   276   000005                     ??___fltol:
   277   000005                     fputc@fp:
   278                           	callstack 0
   279   000005                     ___flge@ff2:
   280                           	callstack 0
   281   000005                     ___fldiv@a:
   282                           	callstack 0
   283                           
   284                           ; 4 bytes @ 0x4
   285   000005                     	ds	2
   286   000007                     ??_fputc:
   287                           
   288                           ; 1 bytes @ 0x6
   289   000007                     	ds	2
   290   000009                     ??___fldiv:
   291   000009                     ??___flge:
   292   000009                     ___fltol@sign1:
   293                           	callstack 0
   294                           
   295                           ; 1 bytes @ 0x8
   296   000009                     	ds	1
   297   00000A                     ___fltol@exp1:
   298                           	callstack 0
   299                           
   300                           ; 1 bytes @ 0x9
   301   00000A                     	ds	2
   302   00000C                     vfpfcnvrt@fp:
   303                           	callstack 0
   304                           
   305                           ; 2 bytes @ 0xB
   306   00000C                     	ds	1
   307   00000D                     ___fldiv@rem:
   308                           	callstack 0
   309                           
   310                           ; 4 bytes @ 0xC
   311   00000D                     	ds	1
   312   00000E                     vfpfcnvrt@fmt:
   313                           	callstack 0
   314                           
   315                           ; 1 bytes @ 0xD
   316   00000E                     	ds	1
   317   00000F                     vfpfcnvrt@ap:
   318                           	callstack 0
   319                           
   320                           ; 1 bytes @ 0xE
   321   00000F                     	ds	1
   322   000010                     ?_vfprintf:
   323                           	callstack 0
   324   000010                     vfprintf@fp:
   325                           	callstack 0
   326                           
   327                           ; 2 bytes @ 0xF
   328   000010                     	ds	1
   329   000011                     ___fldiv@sign:
   330                           	callstack 0
   331                           
   332                           ; 1 bytes @ 0x10
   333   000011                     	ds	1
   334   000012                     vfprintf@fmt:
   335                           	callstack 0
   336   000012                     ___fldiv@new_exp:
   337                           	callstack 0
   338                           
   339                           ; 2 bytes @ 0x11
   340   000012                     	ds	1
   341   000013                     vfprintf@ap:
   342                           	callstack 0
   343                           
   344                           ; 1 bytes @ 0x12
   345   000013                     	ds	1
   346   000014                     vfprintf@cfmt:
   347                           	callstack 0
   348   000014                     ___fldiv@grs:
   349                           	callstack 0
   350                           
   351                           ; 4 bytes @ 0x13
   352   000014                     	ds	1
   353   000015                     ?_printf:
   354                           	callstack 0
   355   000015                     printf@fmt:
   356                           	callstack 0
   357                           
   358                           ; 1 bytes @ 0x14
   359   000015                     	ds	1
   360   000016                     printf@ap:
   361                           	callstack 0
   362                           
   363                           ; 1 bytes @ 0x15
   364   000016                     	ds	2
   365   000018                     ___fldiv@bexp:
   366                           	callstack 0
   367                           
   368                           ; 1 bytes @ 0x17
   369   000018                     	ds	1
   370   000019                     ___fldiv@aexp:
   371                           	callstack 0
   372                           
   373                           ; 1 bytes @ 0x18
   374   000019                     	ds	1
   375   00001A                     ?___flmul:
   376                           	callstack 0
   377   00001A                     ___flmul@b:
   378                           	callstack 0
   379                           
   380                           ; 4 bytes @ 0x19
   381   00001A                     	ds	4
   382   00001E                     ___flmul@a:
   383                           	callstack 0
   384                           
   385                           ; 4 bytes @ 0x1D
   386   00001E                     	ds	4
   387   000022                     ??___flmul:
   388                           
   389                           ; 1 bytes @ 0x21
   390   000022                     	ds	4
   391   000026                     ___flmul@sign:
   392                           	callstack 0
   393                           
   394                           ; 1 bytes @ 0x25
   395   000026                     	ds	1
   396   000027                     ___flmul@grs:
   397                           	callstack 0
   398                           
   399                           ; 4 bytes @ 0x26
   400   000027                     	ds	4
   401   00002B                     ___flmul@aexp:
   402                           	callstack 0
   403                           
   404                           ; 1 bytes @ 0x2A
   405   00002B                     	ds	1
   406   00002C                     ___flmul@bexp:
   407                           	callstack 0
   408                           
   409                           ; 1 bytes @ 0x2B
   410   00002C                     	ds	1
   411   00002D                     ___flmul@prod:
   412                           	callstack 0
   413                           
   414                           ; 4 bytes @ 0x2C
   415   00002D                     	ds	4
   416   000031                     ___flmul@temp:
   417                           	callstack 0
   418                           
   419                           ; 2 bytes @ 0x30
   420   000031                     	ds	2
   421   000033                     ?_trouver_CCPR:
   422                           	callstack 0
   423   000033                     trouver_CCPR@dutyCycle:
   424                           	callstack 0
   425                           
   426                           ; 4 bytes @ 0x32
   427   000033                     	ds	4
   428   000037                     trouver_CCPR@ccpr:
   429                           	callstack 0
   430                           
   431                           ; 4 bytes @ 0x36
   432   000037                     	ds	4
   433   00003B                     _trouver_CCPR$1317:
   434                           	callstack 0
   435                           
   436                           ; 4 bytes @ 0x3A
   437   00003B                     	ds	4
   438   00003F                     ??_main:
   439                           
   440                           ; 1 bytes @ 0x3E
   441   00003F                     	ds	2
   442   000041                     main@caractere:
   443                           	callstack 0
   444                           
   445                           ; 2 bytes @ 0x40
   446   000041                     	ds	2
   447   000043                     main@ccpr_val:
   448                           	callstack 0
   449                           
   450                           ; 2 bytes @ 0x42
   451   000043                     	ds	2
   452                           
   453 ;;
   454 ;;Main: autosize = 0, tempsize = 2, incstack = 0, save=0
   455 ;;
   456 ;; *************** function _main *****************
   457 ;; Defined at:
   458 ;;		line 53 in file "main.c"
   459 ;; Parameters:    Size  Location     Type
   460 ;;		None
   461 ;; Auto vars:     Size  Location     Type
   462 ;;  caractere       2   64[COMRAM] int 
   463 ;;  ccpr_val        2   66[COMRAM] int 
   464 ;; Return value:  Size  Location     Type
   465 ;;                  1    wreg      void 
   466 ;; Registers used:
   467 ;;		wreg, fsr1l, fsr1h, fsr2l, fsr2h, status,2, status,0, tblptrl, tblptrh, tblptru, prodl, prodh, cstack
   468 ;; Tracked objects:
   469 ;;		On entry : 0/0
   470 ;;		On exit  : 0/0
   471 ;;		Unchanged: 0/0
   472 ;; Data sizes:     COMRAM   BANK0   BANK1   BANK2   BANK3   BANK4   BANK5   BANK6   BANK7   BANK8   BANK9  BANK10  BANK1
      +2  BANK13  BANK11  BANK14
   473 ;;      Params:         0       0       0       0       0       0       0       0       0       0       0       0       
      +0       0       0       0
   474 ;;      Locals:         4       0       0       0       0       0       0       0       0       0       0       0       
      +0       0       0       0
   475 ;;      Temps:          2       0       0       0       0       0       0       0       0       0       0       0       
      +0       0       0       0
   476 ;;      Totals:         6       0       0       0       0       0       0       0       0       0       0       0       
      +0       0       0       0
   477 ;;Total ram usage:        6 bytes
   478 ;; Hardware stack levels required when called: 6
   479 ;; This function calls:
   480 ;;		_EUSART1_Read
   481 ;;		_EUSART1_Write
   482 ;;		_PWM2_LoadDutyValue
   483 ;;		_SYSTEM_Initialize
   484 ;;		_printf
   485 ;;		_trouver_CCPR
   486 ;; This function is called by:
   487 ;;		Startup code after reset
   488 ;; This function uses a non-reentrant model
   489 ;;
   490                           
   491                           	psect	text0
   492   001B20                     __ptext0:
   493                           	callstack 0
   494   001B20                     _main:
   495                           	callstack 25
   496   001B20                     
   497                           ;main.c: 56:     SYSTEM_Initialize();
   498   001B20  ECCE  F00E         	call	_SYSTEM_Initialize	;wreg free
   499   001B24                     
   500                           ;main.c: 74:     int ccpr_val;;main.c: 75:     ccpr_val= trouver_CCPR(7.5);
   501   001B24  0E00               	movlw	0
   502   001B26  6E33               	movwf	trouver_CCPR@dutyCycle^0,c
   503   001B28  0E00               	movlw	0
   504   001B2A  6E34               	movwf	(trouver_CCPR@dutyCycle+1)^0,c
   505   001B2C  0EF0               	movlw	240
   506   001B2E  6E35               	movwf	(trouver_CCPR@dutyCycle+2)^0,c
   507   001B30  0E40               	movlw	64
   508   001B32  6E36               	movwf	(trouver_CCPR@dutyCycle+3)^0,c
   509   001B34  EC7D  F00B         	call	_trouver_CCPR	;wreg free
   510   001B38  C033  F043         	movff	?_trouver_CCPR,main@ccpr_val
   511   001B3C  C034  F044         	movff	?_trouver_CCPR+1,main@ccpr_val+1
   512   001B40                     l1911:
   513                           
   514                           ;main.c: 76:     PWM2_LoadDutyValue(ccpr_val);
   515   001B40  C043  F001         	movff	main@ccpr_val,PWM2_LoadDutyValue@dutyValue
   516   001B44  C044  F002         	movff	main@ccpr_val+1,PWM2_LoadDutyValue@dutyValue+1
   517   001B48  EC64  F00E         	call	_PWM2_LoadDutyValue	;wreg free
   518   001B4C                     l1913:
   519                           
   520                           ;main.c: 78:     {;main.c: 80:         printf("\r\n voulez vous barrer (L) ou débarrer (
      +                          U) la porte?");
   521   001B4C  0E01               	movlw	low STR_1
   522   001B4E  6E15               	movwf	printf@fmt^0,c
   523   001B50  ECB6  F00E         	call	_printf	;wreg free
   524   001B54                     
   525                           ;main.c: 81:         int caractere=EUSART1_Read();
   526   001B54  EC91  F00E         	call	_EUSART1_Read	;wreg free
   527   001B58  6E3F               	movwf	??_main^0,c
   528   001B5A  503F               	movf	??_main^0,w,c
   529   001B5C  6E41               	movwf	main@caractere^0,c
   530   001B5E  6A42               	clrf	(main@caractere+1)^0,c
   531   001B60                     
   532                           ;main.c: 82:         EUSART1_Write(caractere);
   533   001B60  5041               	movf	main@caractere^0,w,c
   534   001B62  ECC3  F00E         	call	_EUSART1_Write
   535                           
   536                           ;main.c: 84:         switch(caractere)
   537   001B66  EFD5  F00D         	goto	l1929
   538   001B6A                     l1919:
   539                           
   540                           ;main.c: 91:                 ccpr_val= trouver_CCPR(3.5);
   541   001B6A  0E00               	movlw	0
   542   001B6C  6E33               	movwf	trouver_CCPR@dutyCycle^0,c
   543   001B6E  0E00               	movlw	0
   544   001B70  6E34               	movwf	(trouver_CCPR@dutyCycle+1)^0,c
   545   001B72  0E60               	movlw	96
   546   001B74  6E35               	movwf	(trouver_CCPR@dutyCycle+2)^0,c
   547   001B76  0E40               	movlw	64
   548   001B78  6E36               	movwf	(trouver_CCPR@dutyCycle+3)^0,c
   549   001B7A  EC7D  F00B         	call	_trouver_CCPR	;wreg free
   550   001B7E  C033  F043         	movff	?_trouver_CCPR,main@ccpr_val
   551   001B82  C034  F044         	movff	?_trouver_CCPR+1,main@ccpr_val+1
   552   001B86  EFA0  F00D         	goto	l1911
   553   001B8A                     l1923:
   554                           
   555                           ;main.c: 97:                 ccpr_val= trouver_CCPR(11.5);
   556   001B8A  0E00               	movlw	0
   557   001B8C  6E33               	movwf	trouver_CCPR@dutyCycle^0,c
   558   001B8E  0E00               	movlw	0
   559   001B90  6E34               	movwf	(trouver_CCPR@dutyCycle+1)^0,c
   560   001B92  0E38               	movlw	56
   561   001B94  6E35               	movwf	(trouver_CCPR@dutyCycle+2)^0,c
   562   001B96  0E41               	movlw	65
   563   001B98  6E36               	movwf	(trouver_CCPR@dutyCycle+3)^0,c
   564   001B9A  EC7D  F00B         	call	_trouver_CCPR	;wreg free
   565   001B9E  C033  F043         	movff	?_trouver_CCPR,main@ccpr_val
   566   001BA2  C034  F044         	movff	?_trouver_CCPR+1,main@ccpr_val+1
   567   001BA6  EFA0  F00D         	goto	l1911
   568   001BAA                     l1929:
   569   001BAA  C041  F03F         	movff	main@caractere,??_main
   570   001BAE  C042  F040         	movff	main@caractere+1,??_main+1
   571                           
   572                           ; Switch on 2 bytes has been partitioned into a top level switch of size 1, and 1 sub-sw
      +                          itches
   573                           ; Switch size 1, requested type "simple"
   574                           ; Number of cases is 1, Range of values is 0 to 0
   575                           ; switch strategies available:
   576                           ; Name         Instructions Cycles
   577                           ; simple_byte            4     3 (average)
   578                           ;	Chosen strategy is simple_byte
   579   001BB2  5040               	movf	(??_main+1)^0,w,c
   580   001BB4  0A00               	xorlw	0	; case 0
   581   001BB6  B4D8               	btfsc	status,2,c
   582   001BB8  EFE0  F00D         	goto	l1955
   583   001BBC  EFA6  F00D         	goto	l1913
   584   001BC0                     l1955:
   585                           
   586                           ; Switch size 1, requested type "simple"
   587                           ; Number of cases is 2, Range of values is 76 to 85
   588                           ; switch strategies available:
   589                           ; Name         Instructions Cycles
   590                           ; simple_byte            7     4 (average)
   591                           ;	Chosen strategy is simple_byte
   592   001BC0  503F               	movf	??_main^0,w,c
   593   001BC2  0A4C               	xorlw	76	; case 76
   594   001BC4  B4D8               	btfsc	status,2,c
   595   001BC6  EFB5  F00D         	goto	l1919
   596   001BCA  0A19               	xorlw	25	; case 85
   597   001BCC  B4D8               	btfsc	status,2,c
   598   001BCE  EFC5  F00D         	goto	l1923
   599   001BD2  EFA6  F00D         	goto	l1913
   600   001BD6  EF00  F000         	goto	start
   601   001BDA                     __end_of_main:
   602                           	callstack 0
   603                           
   604 ;; *************** function _trouver_CCPR *****************
   605 ;; Defined at:
   606 ;;		line 122 in file "main.c"
   607 ;; Parameters:    Size  Location     Type
   608 ;;  dutyCycle       4   50[COMRAM] void 
   609 ;; Auto vars:     Size  Location     Type
   610 ;;  ccpr            4   54[COMRAM] void 
   611 ;; Return value:  Size  Location     Type
   612 ;;                  2   50[COMRAM] int 
   613 ;; Registers used:
   614 ;;		wreg, status,2, status,0, prodl, prodh, cstack
   615 ;; Tracked objects:
   616 ;;		On entry : 0/0
   617 ;;		On exit  : 0/0
   618 ;;		Unchanged: 0/0
   619 ;; Data sizes:     COMRAM   BANK0   BANK1   BANK2   BANK3   BANK4   BANK5   BANK6   BANK7   BANK8   BANK9  BANK10  BANK1
      +2  BANK13  BANK11  BANK14
   620 ;;      Params:         4       0       0       0       0       0       0       0       0       0       0       0       
      +0       0       0       0
   621 ;;      Locals:         8       0       0       0       0       0       0       0       0       0       0       0       
      +0       0       0       0
   622 ;;      Temps:          0       0       0       0       0       0       0       0       0       0       0       0       
      +0       0       0       0
   623 ;;      Totals:        12       0       0       0       0       0       0       0       0       0       0       0       
      +0       0       0       0
   624 ;;Total ram usage:       12 bytes
   625 ;; Hardware stack levels used: 1
   626 ;; Hardware stack levels required when called: 1
   627 ;; This function calls:
   628 ;;		___fldiv
   629 ;;		___flge
   630 ;;		___flmul
   631 ;;		___fltol
   632 ;; This function is called by:
   633 ;;		_main
   634 ;; This function uses a non-reentrant model
   635 ;;
   636                           
   637                           	psect	text1
   638   0016FA                     __ptext1:
   639                           	callstack 0
   640   0016FA                     _trouver_CCPR:
   641                           	callstack 29
   642   0016FA                     
   643                           ;main.c: 122: int trouver_CCPR(double dutyCycle);main.c: 123: {;main.c: 124:     if(duty
      +                          Cycle<3.5)
   644   0016FA  C033  F001         	movff	trouver_CCPR@dutyCycle,___flge@ff1
   645   0016FE  C034  F002         	movff	trouver_CCPR@dutyCycle+1,___flge@ff1+1
   646   001702  C035  F003         	movff	trouver_CCPR@dutyCycle+2,___flge@ff1+2
   647   001706  C036  F004         	movff	trouver_CCPR@dutyCycle+3,___flge@ff1+3
   648   00170A  0E00               	movlw	0
   649   00170C  6E05               	movwf	___flge@ff2^0,c
   650   00170E  0E00               	movlw	0
   651   001710  6E06               	movwf	(___flge@ff2+1)^0,c
   652   001712  0E60               	movlw	96
   653   001714  6E07               	movwf	(___flge@ff2+2)^0,c
   654   001716  0E40               	movlw	64
   655   001718  6E08               	movwf	(___flge@ff2+3)^0,c
   656   00171A  ECA9  F00C         	call	___flge	;wreg free
   657   00171E  B0D8               	btfsc	status,0,c
   658   001720  EF94  F00B         	goto	u1301
   659   001724  EF96  F00B         	goto	u1300
   660   001728                     u1301:
   661   001728  EF9E  F00B         	goto	l1889
   662   00172C                     u1300:
   663   00172C                     
   664                           ;main.c: 125:     {;main.c: 126:         dutyCycle=3.5;
   665   00172C  0E00               	movlw	0
   666   00172E  6E33               	movwf	trouver_CCPR@dutyCycle^0,c
   667   001730  0E00               	movlw	0
   668   001732  6E34               	movwf	(trouver_CCPR@dutyCycle+1)^0,c
   669   001734  0E60               	movlw	96
   670   001736  6E35               	movwf	(trouver_CCPR@dutyCycle+2)^0,c
   671   001738  0E40               	movlw	64
   672   00173A  6E36               	movwf	(trouver_CCPR@dutyCycle+3)^0,c
   673   00173C                     l1889:
   674                           
   675                           ;main.c: 128:     if(dutyCycle>11.5)
   676   00173C  0E00               	movlw	0
   677   00173E  6E01               	movwf	___flge@ff1^0,c
   678   001740  0E00               	movlw	0
   679   001742  6E02               	movwf	(___flge@ff1+1)^0,c
   680   001744  0E38               	movlw	56
   681   001746  6E03               	movwf	(___flge@ff1+2)^0,c
   682   001748  0E41               	movlw	65
   683   00174A  6E04               	movwf	(___flge@ff1+3)^0,c
   684   00174C  C033  F005         	movff	trouver_CCPR@dutyCycle,___flge@ff2
   685   001750  C034  F006         	movff	trouver_CCPR@dutyCycle+1,___flge@ff2+1
   686   001754  C035  F007         	movff	trouver_CCPR@dutyCycle+2,___flge@ff2+2
   687   001758  C036  F008         	movff	trouver_CCPR@dutyCycle+3,___flge@ff2+3
   688   00175C  ECA9  F00C         	call	___flge	;wreg free
   689   001760  B0D8               	btfsc	status,0,c
   690   001762  EFB5  F00B         	goto	u1311
   691   001766  EFB7  F00B         	goto	u1310
   692   00176A                     u1311:
   693   00176A  EFBF  F00B         	goto	l1893
   694   00176E                     u1310:
   695   00176E                     
   696                           ;main.c: 129:     {;main.c: 130:         dutyCycle=11.5;
   697   00176E  0E00               	movlw	0
   698   001770  6E33               	movwf	trouver_CCPR@dutyCycle^0,c
   699   001772  0E00               	movlw	0
   700   001774  6E34               	movwf	(trouver_CCPR@dutyCycle+1)^0,c
   701   001776  0E38               	movlw	56
   702   001778  6E35               	movwf	(trouver_CCPR@dutyCycle+2)^0,c
   703   00177A  0E41               	movlw	65
   704   00177C  6E36               	movwf	(trouver_CCPR@dutyCycle+3)^0,c
   705   00177E                     l1893:
   706                           
   707                           ;main.c: 132:     double ccpr=(((dutyCycle/100)*0.019968)/0.032768)*1023.0 ;
   708   00177E  0EEE               	movlw	238
   709   001780  6E1E               	movwf	___flmul@a^0,c
   710   001782  0E93               	movlw	147
   711   001784  6E1F               	movwf	(___flmul@a+1)^0,c
   712   001786  0EA3               	movlw	163
   713   001788  6E20               	movwf	(___flmul@a+2)^0,c
   714   00178A  0E3C               	movlw	60
   715   00178C  6E21               	movwf	(___flmul@a+3)^0,c
   716   00178E  0E00               	movlw	0
   717   001790  6E05               	movwf	___fldiv@a^0,c
   718   001792  0E00               	movlw	0
   719   001794  6E06               	movwf	(___fldiv@a+1)^0,c
   720   001796  0EC8               	movlw	200
   721   001798  6E07               	movwf	(___fldiv@a+2)^0,c
   722   00179A  0E42               	movlw	66
   723   00179C  6E08               	movwf	(___fldiv@a+3)^0,c
   724   00179E  C033  F001         	movff	trouver_CCPR@dutyCycle,___fldiv@b
   725   0017A2  C034  F002         	movff	trouver_CCPR@dutyCycle+1,___fldiv@b+1
   726   0017A6  C035  F003         	movff	trouver_CCPR@dutyCycle+2,___fldiv@b+2
   727   0017AA  C036  F004         	movff	trouver_CCPR@dutyCycle+3,___fldiv@b+3
   728   0017AE  ECB0  F009         	call	___fldiv	;wreg free
   729   0017B2  C001  F01A         	movff	?___fldiv,___flmul@b
   730   0017B6  C002  F01B         	movff	?___fldiv+1,___flmul@b+1
   731   0017BA  C003  F01C         	movff	?___fldiv+2,___flmul@b+2
   732   0017BE  C004  F01D         	movff	?___fldiv+3,___flmul@b+3
   733   0017C2  EC9B  F007         	call	___flmul	;wreg free
   734   0017C6  C01A  F03B         	movff	?___flmul,_trouver_CCPR$1317
   735   0017CA  C01B  F03C         	movff	?___flmul+1,_trouver_CCPR$1317+1
   736   0017CE  C01C  F03D         	movff	?___flmul+2,_trouver_CCPR$1317+2
   737   0017D2  C01D  F03E         	movff	?___flmul+3,_trouver_CCPR$1317+3
   738   0017D6                     
   739                           ;main.c: 132:     double ccpr=(((dutyCycle/100)*0.019968)/0.032768)*1023.0 ;
   740   0017D6  0EBD               	movlw	189
   741   0017D8  6E05               	movwf	___fldiv@a^0,c
   742   0017DA  0E37               	movlw	55
   743   0017DC  6E06               	movwf	(___fldiv@a+1)^0,c
   744   0017DE  0E06               	movlw	6
   745   0017E0  6E07               	movwf	(___fldiv@a+2)^0,c
   746   0017E2  0E3D               	movlw	61
   747   0017E4  6E08               	movwf	(___fldiv@a+3)^0,c
   748   0017E6  C03B  F001         	movff	_trouver_CCPR$1317,___fldiv@b
   749   0017EA  C03C  F002         	movff	_trouver_CCPR$1317+1,___fldiv@b+1
   750   0017EE  C03D  F003         	movff	_trouver_CCPR$1317+2,___fldiv@b+2
   751   0017F2  C03E  F004         	movff	_trouver_CCPR$1317+3,___fldiv@b+3
   752   0017F6  ECB0  F009         	call	___fldiv	;wreg free
   753   0017FA  C001  F01A         	movff	?___fldiv,___flmul@b
   754   0017FE  C002  F01B         	movff	?___fldiv+1,___flmul@b+1
   755   001802  C003  F01C         	movff	?___fldiv+2,___flmul@b+2
   756   001806  C004  F01D         	movff	?___fldiv+3,___flmul@b+3
   757   00180A  0E00               	movlw	0
   758   00180C  6E1E               	movwf	___flmul@a^0,c
   759   00180E  0EC0               	movlw	192
   760   001810  6E1F               	movwf	(___flmul@a+1)^0,c
   761   001812  0E7F               	movlw	127
   762   001814  6E20               	movwf	(___flmul@a+2)^0,c
   763   001816  0E44               	movlw	68
   764   001818  6E21               	movwf	(___flmul@a+3)^0,c
   765   00181A  EC9B  F007         	call	___flmul	;wreg free
   766   00181E  C01A  F037         	movff	?___flmul,trouver_CCPR@ccpr
   767   001822  C01B  F038         	movff	?___flmul+1,trouver_CCPR@ccpr+1
   768   001826  C01C  F039         	movff	?___flmul+2,trouver_CCPR@ccpr+2
   769   00182A  C01D  F03A         	movff	?___flmul+3,trouver_CCPR@ccpr+3
   770   00182E                     
   771                           ;main.c: 134:     return (int)ccpr;
   772   00182E  C037  F001         	movff	trouver_CCPR@ccpr,___fltol@f1
   773   001832  C038  F002         	movff	trouver_CCPR@ccpr+1,___fltol@f1+1
   774   001836  C039  F003         	movff	trouver_CCPR@ccpr+2,___fltol@f1+2
   775   00183A  C03A  F004         	movff	trouver_CCPR@ccpr+3,___fltol@f1+3
   776   00183E  EC26  F00C         	call	___fltol	;wreg free
   777   001842  C001  F033         	movff	?___fltol,?_trouver_CCPR
   778   001846  C002  F034         	movff	?___fltol+1,?_trouver_CCPR+1
   779   00184A  0012               	return		;funcret
   780   00184C                     __end_of_trouver_CCPR:
   781                           	callstack 0
   782                           
   783 ;; *************** function ___fltol *****************
   784 ;; Defined at:
   785 ;;		line 43 in file "C:\Program Files\Microchip\xc8\v2.45\pic\sources\c99\common\fltol.c"
   786 ;; Parameters:    Size  Location     Type
   787 ;;  f1              4    0[COMRAM] int 
   788 ;; Auto vars:     Size  Location     Type
   789 ;;  exp1            1    9[COMRAM] unsigned char 
   790 ;;  sign1           1    8[COMRAM] unsigned char 
   791 ;; Return value:  Size  Location     Type
   792 ;;                  4    0[COMRAM] long 
   793 ;; Registers used:
   794 ;;		wreg, status,2, status,0
   795 ;; Tracked objects:
   796 ;;		On entry : 0/0
   797 ;;		On exit  : 0/0
   798 ;;		Unchanged: 0/0
   799 ;; Data sizes:     COMRAM   BANK0   BANK1   BANK2   BANK3   BANK4   BANK5   BANK6   BANK7   BANK8   BANK9  BANK10  BANK1
      +2  BANK13  BANK11  BANK14
   800 ;;      Params:         4       0       0       0       0       0       0       0       0       0       0       0       
      +0       0       0       0
   801 ;;      Locals:         2       0       0       0       0       0       0       0       0       0       0       0       
      +0       0       0       0
   802 ;;      Temps:          4       0       0       0       0       0       0       0       0       0       0       0       
      +0       0       0       0
   803 ;;      Totals:        10       0       0       0       0       0       0       0       0       0       0       0       
      +0       0       0       0
   804 ;;Total ram usage:       10 bytes
   805 ;; Hardware stack levels used: 1
   806 ;; This function calls:
   807 ;;		Nothing
   808 ;; This function is called by:
   809 ;;		_trouver_CCPR
   810 ;; This function uses a non-reentrant model
   811 ;;
   812                           
   813                           	psect	text2
   814   00184C                     __ptext2:
   815                           	callstack 0
   816   00184C                     ___fltol:
   817                           	callstack 29
   818   00184C  3403               	rlcf	(___fltol@f1+2)^0,w,c
   819   00184E  3404               	rlcf	(___fltol@f1+3)^0,w,c
   820   001850  6E0A               	movwf	___fltol@exp1^0,c
   821   001852  500A               	movf	___fltol@exp1^0,w,c
   822   001854  A4D8               	btfss	status,2,c
   823   001856  EF2F  F00C         	goto	u1221
   824   00185A  EF31  F00C         	goto	u1220
   825   00185E                     u1221:
   826   00185E  EF3B  F00C         	goto	l1831
   827   001862                     u1220:
   828   001862                     l1827:
   829   001862  0E00               	movlw	0
   830   001864  6E01               	movwf	?___fltol^0,c
   831   001866  0E00               	movlw	0
   832   001868  6E02               	movwf	(?___fltol+1)^0,c
   833   00186A  0E00               	movlw	0
   834   00186C  6E03               	movwf	(?___fltol+2)^0,c
   835   00186E  0E00               	movlw	0
   836   001870  6E04               	movwf	(?___fltol+3)^0,c
   837   001872  EFA8  F00C         	goto	l519
   838   001876                     l1831:
   839   001876  C001  F005         	movff	___fltol@f1,??___fltol
   840   00187A  C002  F006         	movff	___fltol@f1+1,??___fltol+1
   841   00187E  C003  F007         	movff	___fltol@f1+2,??___fltol+2
   842   001882  C004  F008         	movff	___fltol@f1+3,??___fltol+3
   843   001886  0E20               	movlw	32
   844   001888  EF4B  F00C         	goto	u1230
   845   00188C                     u1235:
   846   00188C  90D8               	bcf	status,0,c
   847   00188E  3208               	rrcf	(??___fltol+3)^0,f,c
   848   001890  3207               	rrcf	(??___fltol+2)^0,f,c
   849   001892  3206               	rrcf	(??___fltol+1)^0,f,c
   850   001894  3205               	rrcf	??___fltol^0,f,c
   851   001896                     u1230:
   852   001896  2EE8               	decfsz	wreg,f,c
   853   001898  EF46  F00C         	goto	u1235
   854   00189C  5005               	movf	??___fltol^0,w,c
   855   00189E  6E09               	movwf	___fltol@sign1^0,c
   856   0018A0  8E03               	bsf	(___fltol@f1+2)^0,7,c
   857   0018A2  0EFF               	movlw	255
   858   0018A4  1601               	andwf	___fltol@f1^0,f,c
   859   0018A6  0EFF               	movlw	255
   860   0018A8  1602               	andwf	(___fltol@f1+1)^0,f,c
   861   0018AA  0EFF               	movlw	255
   862   0018AC  1603               	andwf	(___fltol@f1+2)^0,f,c
   863   0018AE  0E00               	movlw	0
   864   0018B0  1604               	andwf	(___fltol@f1+3)^0,f,c
   865   0018B2  0E96               	movlw	150
   866   0018B4  5E0A               	subwf	___fltol@exp1^0,f,c
   867   0018B6  BE0A               	btfsc	___fltol@exp1^0,7,c
   868   0018B8  EF62  F00C         	goto	u1240
   869   0018BC  EF60  F00C         	goto	u1241
   870   0018C0                     u1241:
   871   0018C0  EF78  F00C         	goto	l1851
   872   0018C4                     u1240:
   873   0018C4  500A               	movf	___fltol@exp1^0,w,c
   874   0018C6  0A80               	xorlw	128
   875   0018C8  0F97               	addlw	151
   876   0018CA  B0D8               	btfsc	status,0,c
   877   0018CC  EF6A  F00C         	goto	u1251
   878   0018D0  EF6C  F00C         	goto	u1250
   879   0018D4                     u1251:
   880   0018D4  EF6E  F00C         	goto	l1847
   881   0018D8                     u1250:
   882   0018D8  EF31  F00C         	goto	l1827
   883   0018DC                     l1847:
   884   0018DC  90D8               	bcf	status,0,c
   885   0018DE  3204               	rrcf	(___fltol@f1+3)^0,f,c
   886   0018E0  3203               	rrcf	(___fltol@f1+2)^0,f,c
   887   0018E2  3202               	rrcf	(___fltol@f1+1)^0,f,c
   888   0018E4  3201               	rrcf	___fltol@f1^0,f,c
   889   0018E6  3E0A               	incfsz	___fltol@exp1^0,f,c
   890   0018E8  EF6E  F00C         	goto	l1847
   891   0018EC  EF90  F00C         	goto	l1861
   892   0018F0                     l1851:
   893   0018F0  0E1F               	movlw	31
   894   0018F2  640A               	cpfsgt	___fltol@exp1^0,c
   895   0018F4  EF7E  F00C         	goto	u1261
   896   0018F8  EF80  F00C         	goto	u1260
   897   0018FC                     u1261:
   898   0018FC  EF88  F00C         	goto	l1859
   899   001900                     u1260:
   900   001900  EF31  F00C         	goto	l1827
   901   001904                     l1857:
   902   001904  90D8               	bcf	status,0,c
   903   001906  3601               	rlcf	___fltol@f1^0,f,c
   904   001908  3602               	rlcf	(___fltol@f1+1)^0,f,c
   905   00190A  3603               	rlcf	(___fltol@f1+2)^0,f,c
   906   00190C  3604               	rlcf	(___fltol@f1+3)^0,f,c
   907   00190E  060A               	decf	___fltol@exp1^0,f,c
   908   001910                     l1859:
   909   001910  500A               	movf	___fltol@exp1^0,w,c
   910   001912  A4D8               	btfss	status,2,c
   911   001914  EF8E  F00C         	goto	u1271
   912   001918  EF90  F00C         	goto	u1270
   913   00191C                     u1271:
   914   00191C  EF82  F00C         	goto	l1857
   915   001920                     u1270:
   916   001920                     l1861:
   917   001920  5009               	movf	___fltol@sign1^0,w,c
   918   001922  B4D8               	btfsc	status,2,c
   919   001924  EF96  F00C         	goto	u1281
   920   001928  EF98  F00C         	goto	u1280
   921   00192C                     u1281:
   922   00192C  EFA0  F00C         	goto	l1865
   923   001930                     u1280:
   924   001930  1E04               	comf	(___fltol@f1+3)^0,f,c
   925   001932  1E03               	comf	(___fltol@f1+2)^0,f,c
   926   001934  1E02               	comf	(___fltol@f1+1)^0,f,c
   927   001936  6C01               	negf	___fltol@f1^0,c
   928   001938  0E00               	movlw	0
   929   00193A  2202               	addwfc	(___fltol@f1+1)^0,f,c
   930   00193C  2203               	addwfc	(___fltol@f1+2)^0,f,c
   931   00193E  2204               	addwfc	(___fltol@f1+3)^0,f,c
   932   001940                     l1865:
   933   001940  C001  F001         	movff	___fltol@f1,?___fltol
   934   001944  C002  F002         	movff	___fltol@f1+1,?___fltol+1
   935   001948  C003  F003         	movff	___fltol@f1+2,?___fltol+2
   936   00194C  C004  F004         	movff	___fltol@f1+3,?___fltol+3
   937   001950                     l519:
   938   001950  0012               	return		;funcret
   939   001952                     __end_of___fltol:
   940                           	callstack 0
   941                           
   942 ;; *************** function ___flmul *****************
   943 ;; Defined at:
   944 ;;		line 8 in file "C:\Program Files\Microchip\xc8\v2.45\pic\sources\c99\common\sprcmul.c"
   945 ;; Parameters:    Size  Location     Type
   946 ;;  b               4   25[COMRAM] long 
   947 ;;  a               4   29[COMRAM] long 
   948 ;; Auto vars:     Size  Location     Type
   949 ;;  prod            4   44[COMRAM] struct .
   950 ;;  grs             4   38[COMRAM] unsigned long 
   951 ;;  temp            2   48[COMRAM] struct .
   952 ;;  bexp            1   43[COMRAM] unsigned char 
   953 ;;  aexp            1   42[COMRAM] unsigned char 
   954 ;;  sign            1   37[COMRAM] unsigned char 
   955 ;; Return value:  Size  Location     Type
   956 ;;                  4   25[COMRAM] unsigned char 
   957 ;; Registers used:
   958 ;;		wreg, status,2, status,0, prodl, prodh
   959 ;; Tracked objects:
   960 ;;		On entry : 0/0
   961 ;;		On exit  : 0/0
   962 ;;		Unchanged: 0/0
   963 ;; Data sizes:     COMRAM   BANK0   BANK1   BANK2   BANK3   BANK4   BANK5   BANK6   BANK7   BANK8   BANK9  BANK10  BANK1
      +2  BANK13  BANK11  BANK14
   964 ;;      Params:         8       0       0       0       0       0       0       0       0       0       0       0       
      +0       0       0       0
   965 ;;      Locals:        13       0       0       0       0       0       0       0       0       0       0       0       
      +0       0       0       0
   966 ;;      Temps:          4       0       0       0       0       0       0       0       0       0       0       0       
      +0       0       0       0
   967 ;;      Totals:        25       0       0       0       0       0       0       0       0       0       0       0       
      +0       0       0       0
   968 ;;Total ram usage:       25 bytes
   969 ;; Hardware stack levels used: 1
   970 ;; This function calls:
   971 ;;		Nothing
   972 ;; This function is called by:
   973 ;;		_trouver_CCPR
   974 ;; This function uses a non-reentrant model
   975 ;;
   976                           
   977                           	psect	text3
   978   000F36                     __ptext3:
   979                           	callstack 0
   980   000F36                     ___flmul:
   981                           	callstack 29
   982   000F36  501D               	movf	(___flmul@b+3)^0,w,c
   983   000F38  0B80               	andlw	128
   984   000F3A  6E26               	movwf	___flmul@sign^0,c
   985   000F3C  501D               	movf	(___flmul@b+3)^0,w,c
   986   000F3E  241D               	addwf	(___flmul@b+3)^0,w,c
   987   000F40  6E2C               	movwf	___flmul@bexp^0,c
   988   000F42  AE1C               	btfss	(___flmul@b+2)^0,7,c
   989   000F44  EFA6  F007         	goto	u981
   990   000F48  EFA8  F007         	goto	u980
   991   000F4C                     u981:
   992   000F4C  EFA9  F007         	goto	l1679
   993   000F50                     u980:
   994   000F50  802C               	bsf	___flmul@bexp^0,0,c
   995   000F52                     l1679:
   996   000F52  502C               	movf	___flmul@bexp^0,w,c
   997   000F54  B4D8               	btfsc	status,2,c
   998   000F56  EFAF  F007         	goto	u991
   999   000F5A  EFB1  F007         	goto	u990
  1000   000F5E                     u991:
  1001   000F5E  EFC4  F007         	goto	l1687
  1002   000F62                     u990:
  1003   000F62  282C               	incf	___flmul@bexp^0,w,c
  1004   000F64  A4D8               	btfss	status,2,c
  1005   000F66  EFB7  F007         	goto	u1001
  1006   000F6A  EFB9  F007         	goto	u1000
  1007   000F6E                     u1001:
  1008   000F6E  EFC1  F007         	goto	l1685
  1009   000F72                     u1000:
  1010   000F72  0E00               	movlw	0
  1011   000F74  6E1A               	movwf	___flmul@b^0,c
  1012   000F76  0E00               	movlw	0
  1013   000F78  6E1B               	movwf	(___flmul@b+1)^0,c
  1014   000F7A  0E00               	movlw	0
  1015   000F7C  6E1C               	movwf	(___flmul@b+2)^0,c
  1016   000F7E  0E00               	movlw	0
  1017   000F80  6E1D               	movwf	(___flmul@b+3)^0,c
  1018   000F82                     l1685:
  1019   000F82  8E1C               	bsf	(___flmul@b+2)^0,7,c
  1020   000F84  EFCC  F007         	goto	l1689
  1021   000F88                     l1687:
  1022   000F88  0E00               	movlw	0
  1023   000F8A  6E1A               	movwf	___flmul@b^0,c
  1024   000F8C  0E00               	movlw	0
  1025   000F8E  6E1B               	movwf	(___flmul@b+1)^0,c
  1026   000F90  0E00               	movlw	0
  1027   000F92  6E1C               	movwf	(___flmul@b+2)^0,c
  1028   000F94  0E00               	movlw	0
  1029   000F96  6E1D               	movwf	(___flmul@b+3)^0,c
  1030   000F98                     l1689:
  1031   000F98  5021               	movf	(___flmul@a+3)^0,w,c
  1032   000F9A  0B80               	andlw	128
  1033   000F9C  1A26               	xorwf	___flmul@sign^0,f,c
  1034   000F9E  5021               	movf	(___flmul@a+3)^0,w,c
  1035   000FA0  2421               	addwf	(___flmul@a+3)^0,w,c
  1036   000FA2  6E2B               	movwf	___flmul@aexp^0,c
  1037   000FA4  AE20               	btfss	(___flmul@a+2)^0,7,c
  1038   000FA6  EFD7  F007         	goto	u1011
  1039   000FAA  EFD9  F007         	goto	u1010
  1040   000FAE                     u1011:
  1041   000FAE  EFDA  F007         	goto	l1697
  1042   000FB2                     u1010:
  1043   000FB2  802B               	bsf	___flmul@aexp^0,0,c
  1044   000FB4                     l1697:
  1045   000FB4  502B               	movf	___flmul@aexp^0,w,c
  1046   000FB6  B4D8               	btfsc	status,2,c
  1047   000FB8  EFE0  F007         	goto	u1021
  1048   000FBC  EFE2  F007         	goto	u1020
  1049   000FC0                     u1021:
  1050   000FC0  EFF5  F007         	goto	l1705
  1051   000FC4                     u1020:
  1052   000FC4  282B               	incf	___flmul@aexp^0,w,c
  1053   000FC6  A4D8               	btfss	status,2,c
  1054   000FC8  EFE8  F007         	goto	u1031
  1055   000FCC  EFEA  F007         	goto	u1030
  1056   000FD0                     u1031:
  1057   000FD0  EFF2  F007         	goto	l1703
  1058   000FD4                     u1030:
  1059   000FD4  0E00               	movlw	0
  1060   000FD6  6E1E               	movwf	___flmul@a^0,c
  1061   000FD8  0E00               	movlw	0
  1062   000FDA  6E1F               	movwf	(___flmul@a+1)^0,c
  1063   000FDC  0E00               	movlw	0
  1064   000FDE  6E20               	movwf	(___flmul@a+2)^0,c
  1065   000FE0  0E00               	movlw	0
  1066   000FE2  6E21               	movwf	(___flmul@a+3)^0,c
  1067   000FE4                     l1703:
  1068   000FE4  8E20               	bsf	(___flmul@a+2)^0,7,c
  1069   000FE6  EFFD  F007         	goto	l836
  1070   000FEA                     l1705:
  1071   000FEA  0E00               	movlw	0
  1072   000FEC  6E1E               	movwf	___flmul@a^0,c
  1073   000FEE  0E00               	movlw	0
  1074   000FF0  6E1F               	movwf	(___flmul@a+1)^0,c
  1075   000FF2  0E00               	movlw	0
  1076   000FF4  6E20               	movwf	(___flmul@a+2)^0,c
  1077   000FF6  0E00               	movlw	0
  1078   000FF8  6E21               	movwf	(___flmul@a+3)^0,c
  1079   000FFA                     l836:
  1080   000FFA  502B               	movf	___flmul@aexp^0,w,c
  1081   000FFC  B4D8               	btfsc	status,2,c
  1082   000FFE  EF03  F008         	goto	u1041
  1083   001002  EF05  F008         	goto	u1040
  1084   001006                     u1041:
  1085   001006  EF0D  F008         	goto	l1709
  1086   00100A                     u1040:
  1087   00100A  502C               	movf	___flmul@bexp^0,w,c
  1088   00100C  A4D8               	btfss	status,2,c
  1089   00100E  EF0B  F008         	goto	u1051
  1090   001012  EF0D  F008         	goto	u1050
  1091   001016                     u1051:
  1092   001016  EF17  F008         	goto	l1713
  1093   00101A                     u1050:
  1094   00101A                     l1709:
  1095   00101A  0E00               	movlw	0
  1096   00101C  6E1A               	movwf	?___flmul^0,c
  1097   00101E  0E00               	movlw	0
  1098   001020  6E1B               	movwf	(?___flmul+1)^0,c
  1099   001022  0E00               	movlw	0
  1100   001024  6E1C               	movwf	(?___flmul+2)^0,c
  1101   001026  0E00               	movlw	0
  1102   001028  6E1D               	movwf	(?___flmul+3)^0,c
  1103   00102A  EFAF  F009         	goto	l840
  1104   00102E                     l1713:
  1105   00102E  5020               	movf	(___flmul@a+2)^0,w,c
  1106   001030  021A               	mulwf	___flmul@b^0,c
  1107   001032  CFF3 F031          	movff	prodl,___flmul@temp
  1108   001036  CFF4 F032          	movff	prodh,___flmul@temp+1
  1109   00103A  5031               	movf	___flmul@temp^0,w,c
  1110   00103C  6E27               	movwf	___flmul@grs^0,c
  1111   00103E  6A28               	clrf	(___flmul@grs+1)^0,c
  1112   001040  6A29               	clrf	(___flmul@grs+2)^0,c
  1113   001042  6A2A               	clrf	(___flmul@grs+3)^0,c
  1114   001044  5032               	movf	(___flmul@temp+1)^0,w,c
  1115   001046  6E2D               	movwf	___flmul@prod^0,c
  1116   001048  6A2E               	clrf	(___flmul@prod+1)^0,c
  1117   00104A  6A2F               	clrf	(___flmul@prod+2)^0,c
  1118   00104C  6A30               	clrf	(___flmul@prod+3)^0,c
  1119   00104E  501F               	movf	(___flmul@a+1)^0,w,c
  1120   001050  021B               	mulwf	(___flmul@b+1)^0,c
  1121   001052  CFF3 F031          	movff	prodl,___flmul@temp
  1122   001056  CFF4 F032          	movff	prodh,___flmul@temp+1
  1123   00105A  5031               	movf	___flmul@temp^0,w,c
  1124   00105C  2627               	addwf	___flmul@grs^0,f,c
  1125   00105E  0E00               	movlw	0
  1126   001060  2228               	addwfc	(___flmul@grs+1)^0,f,c
  1127   001062  2229               	addwfc	(___flmul@grs+2)^0,f,c
  1128   001064  222A               	addwfc	(___flmul@grs+3)^0,f,c
  1129   001066  5032               	movf	(___flmul@temp+1)^0,w,c
  1130   001068  262D               	addwf	___flmul@prod^0,f,c
  1131   00106A  0E00               	movlw	0
  1132   00106C  222E               	addwfc	(___flmul@prod+1)^0,f,c
  1133   00106E  222F               	addwfc	(___flmul@prod+2)^0,f,c
  1134   001070  2230               	addwfc	(___flmul@prod+3)^0,f,c
  1135   001072  501E               	movf	___flmul@a^0,w,c
  1136   001074  021C               	mulwf	(___flmul@b+2)^0,c
  1137   001076  CFF3 F031          	movff	prodl,___flmul@temp
  1138   00107A  CFF4 F032          	movff	prodh,___flmul@temp+1
  1139   00107E  5031               	movf	___flmul@temp^0,w,c
  1140   001080  2627               	addwf	___flmul@grs^0,f,c
  1141   001082  0E00               	movlw	0
  1142   001084  2228               	addwfc	(___flmul@grs+1)^0,f,c
  1143   001086  2229               	addwfc	(___flmul@grs+2)^0,f,c
  1144   001088  222A               	addwfc	(___flmul@grs+3)^0,f,c
  1145   00108A  5032               	movf	(___flmul@temp+1)^0,w,c
  1146   00108C  262D               	addwf	___flmul@prod^0,f,c
  1147   00108E  0E00               	movlw	0
  1148   001090  222E               	addwfc	(___flmul@prod+1)^0,f,c
  1149   001092  222F               	addwfc	(___flmul@prod+2)^0,f,c
  1150   001094  2230               	addwfc	(___flmul@prod+3)^0,f,c
  1151   001096  C029  F02A         	movff	___flmul@grs+2,___flmul@grs+3
  1152   00109A  C028  F029         	movff	___flmul@grs+1,___flmul@grs+2
  1153   00109E  C027  F028         	movff	___flmul@grs,___flmul@grs+1
  1154   0010A2  6A27               	clrf	___flmul@grs^0,c
  1155   0010A4  501E               	movf	___flmul@a^0,w,c
  1156   0010A6  021B               	mulwf	(___flmul@b+1)^0,c
  1157   0010A8  CFF3 F031          	movff	prodl,___flmul@temp
  1158   0010AC  CFF4 F032          	movff	prodh,___flmul@temp+1
  1159   0010B0  5031               	movf	___flmul@temp^0,w,c
  1160   0010B2  2627               	addwf	___flmul@grs^0,f,c
  1161   0010B4  5032               	movf	(___flmul@temp+1)^0,w,c
  1162   0010B6  2228               	addwfc	(___flmul@grs+1)^0,f,c
  1163   0010B8  0E00               	movlw	0
  1164   0010BA  2229               	addwfc	(___flmul@grs+2)^0,f,c
  1165   0010BC  0E00               	movlw	0
  1166   0010BE  222A               	addwfc	(___flmul@grs+3)^0,f,c
  1167   0010C0  501F               	movf	(___flmul@a+1)^0,w,c
  1168   0010C2  021A               	mulwf	___flmul@b^0,c
  1169   0010C4  CFF3 F031          	movff	prodl,___flmul@temp
  1170   0010C8  CFF4 F032          	movff	prodh,___flmul@temp+1
  1171   0010CC  5031               	movf	___flmul@temp^0,w,c
  1172   0010CE  2627               	addwf	___flmul@grs^0,f,c
  1173   0010D0  5032               	movf	(___flmul@temp+1)^0,w,c
  1174   0010D2  2228               	addwfc	(___flmul@grs+1)^0,f,c
  1175   0010D4  0E00               	movlw	0
  1176   0010D6  2229               	addwfc	(___flmul@grs+2)^0,f,c
  1177   0010D8  0E00               	movlw	0
  1178   0010DA  222A               	addwfc	(___flmul@grs+3)^0,f,c
  1179   0010DC  C029  F02A         	movff	___flmul@grs+2,___flmul@grs+3
  1180   0010E0  C028  F029         	movff	___flmul@grs+1,___flmul@grs+2
  1181   0010E4  C027  F028         	movff	___flmul@grs,___flmul@grs+1
  1182   0010E8  6A27               	clrf	___flmul@grs^0,c
  1183   0010EA  501E               	movf	___flmul@a^0,w,c
  1184   0010EC  021A               	mulwf	___flmul@b^0,c
  1185   0010EE  CFF3 F031          	movff	prodl,___flmul@temp
  1186   0010F2  CFF4 F032          	movff	prodh,___flmul@temp+1
  1187   0010F6  5031               	movf	___flmul@temp^0,w,c
  1188   0010F8  2627               	addwf	___flmul@grs^0,f,c
  1189   0010FA  5032               	movf	(___flmul@temp+1)^0,w,c
  1190   0010FC  2228               	addwfc	(___flmul@grs+1)^0,f,c
  1191   0010FE  0E00               	movlw	0
  1192   001100  2229               	addwfc	(___flmul@grs+2)^0,f,c
  1193   001102  0E00               	movlw	0
  1194   001104  222A               	addwfc	(___flmul@grs+3)^0,f,c
  1195   001106  5020               	movf	(___flmul@a+2)^0,w,c
  1196   001108  021B               	mulwf	(___flmul@b+1)^0,c
  1197   00110A  CFF3 F031          	movff	prodl,___flmul@temp
  1198   00110E  CFF4 F032          	movff	prodh,___flmul@temp+1
  1199   001112  5031               	movf	___flmul@temp^0,w,c
  1200   001114  262D               	addwf	___flmul@prod^0,f,c
  1201   001116  5032               	movf	(___flmul@temp+1)^0,w,c
  1202   001118  222E               	addwfc	(___flmul@prod+1)^0,f,c
  1203   00111A  0E00               	movlw	0
  1204   00111C  222F               	addwfc	(___flmul@prod+2)^0,f,c
  1205   00111E  0E00               	movlw	0
  1206   001120  2230               	addwfc	(___flmul@prod+3)^0,f,c
  1207   001122  501F               	movf	(___flmul@a+1)^0,w,c
  1208   001124  021C               	mulwf	(___flmul@b+2)^0,c
  1209   001126  CFF3 F031          	movff	prodl,___flmul@temp
  1210   00112A  CFF4 F032          	movff	prodh,___flmul@temp+1
  1211   00112E  5031               	movf	___flmul@temp^0,w,c
  1212   001130  262D               	addwf	___flmul@prod^0,f,c
  1213   001132  5032               	movf	(___flmul@temp+1)^0,w,c
  1214   001134  222E               	addwfc	(___flmul@prod+1)^0,f,c
  1215   001136  0E00               	movlw	0
  1216   001138  222F               	addwfc	(___flmul@prod+2)^0,f,c
  1217   00113A  0E00               	movlw	0
  1218   00113C  2230               	addwfc	(___flmul@prod+3)^0,f,c
  1219   00113E  5020               	movf	(___flmul@a+2)^0,w,c
  1220   001140  021C               	mulwf	(___flmul@b+2)^0,c
  1221   001142  CFF3 F031          	movff	prodl,___flmul@temp
  1222   001146  CFF4 F032          	movff	prodh,___flmul@temp+1
  1223   00114A  5031               	movf	___flmul@temp^0,w,c
  1224   00114C  6E22               	movwf	??___flmul^0,c
  1225   00114E  5032               	movf	(___flmul@temp+1)^0,w,c
  1226   001150  6E23               	movwf	(??___flmul+1)^0,c
  1227   001152  6A24               	clrf	(??___flmul+2)^0,c
  1228   001154  6A25               	clrf	(??___flmul+3)^0,c
  1229   001156  C024  F025         	movff	??___flmul+2,??___flmul+3
  1230   00115A  C023  F024         	movff	??___flmul+1,??___flmul+2
  1231   00115E  C022  F023         	movff	??___flmul,??___flmul+1
  1232   001162  6A22               	clrf	??___flmul^0,c
  1233   001164  5022               	movf	??___flmul^0,w,c
  1234   001166  262D               	addwf	___flmul@prod^0,f,c
  1235   001168  5023               	movf	(??___flmul+1)^0,w,c
  1236   00116A  222E               	addwfc	(___flmul@prod+1)^0,f,c
  1237   00116C  5024               	movf	(??___flmul+2)^0,w,c
  1238   00116E  222F               	addwfc	(___flmul@prod+2)^0,f,c
  1239   001170  5025               	movf	(??___flmul+3)^0,w,c
  1240   001172  2230               	addwfc	(___flmul@prod+3)^0,f,c
  1241   001174  C027  F022         	movff	___flmul@grs,??___flmul
  1242   001178  C028  F023         	movff	___flmul@grs+1,??___flmul+1
  1243   00117C  C029  F024         	movff	___flmul@grs+2,??___flmul+2
  1244   001180  C02A  F025         	movff	___flmul@grs+3,??___flmul+3
  1245   001184  0E19               	movlw	25
  1246   001186  EFCA  F008         	goto	u1060
  1247   00118A                     u1065:
  1248   00118A  90D8               	bcf	status,0,c
  1249   00118C  3225               	rrcf	(??___flmul+3)^0,f,c
  1250   00118E  3224               	rrcf	(??___flmul+2)^0,f,c
  1251   001190  3223               	rrcf	(??___flmul+1)^0,f,c
  1252   001192  3222               	rrcf	??___flmul^0,f,c
  1253   001194                     u1060:
  1254   001194  2EE8               	decfsz	wreg,f,c
  1255   001196  EFC5  F008         	goto	u1065
  1256   00119A  5022               	movf	??___flmul^0,w,c
  1257   00119C  262D               	addwf	___flmul@prod^0,f,c
  1258   00119E  5023               	movf	(??___flmul+1)^0,w,c
  1259   0011A0  222E               	addwfc	(___flmul@prod+1)^0,f,c
  1260   0011A2  5024               	movf	(??___flmul+2)^0,w,c
  1261   0011A4  222F               	addwfc	(___flmul@prod+2)^0,f,c
  1262   0011A6  5025               	movf	(??___flmul+3)^0,w,c
  1263   0011A8  2230               	addwfc	(___flmul@prod+3)^0,f,c
  1264   0011AA  C029  F02A         	movff	___flmul@grs+2,___flmul@grs+3
  1265   0011AE  C028  F029         	movff	___flmul@grs+1,___flmul@grs+2
  1266   0011B2  C027  F028         	movff	___flmul@grs,___flmul@grs+1
  1267   0011B6  6A27               	clrf	___flmul@grs^0,c
  1268   0011B8  502B               	movf	___flmul@aexp^0,w,c
  1269   0011BA  C02C  F022         	movff	___flmul@bexp,??___flmul
  1270   0011BE  6A23               	clrf	(??___flmul+1)^0,c
  1271   0011C0  2622               	addwf	??___flmul^0,f,c
  1272   0011C2  0E00               	movlw	0
  1273   0011C4  2223               	addwfc	(??___flmul+1)^0,f,c
  1274   0011C6  0E82               	movlw	130
  1275   0011C8  2422               	addwf	??___flmul^0,w,c
  1276   0011CA  6E31               	movwf	___flmul@temp^0,c
  1277   0011CC  0EFF               	movlw	255
  1278   0011CE  2023               	addwfc	(??___flmul+1)^0,w,c
  1279   0011D0  6E32               	movwf	(___flmul@temp+1)^0,c
  1280   0011D2  EF00  F009         	goto	l1761
  1281   0011D6                     l1755:
  1282   0011D6  90D8               	bcf	status,0,c
  1283   0011D8  362D               	rlcf	___flmul@prod^0,f,c
  1284   0011DA  362E               	rlcf	(___flmul@prod+1)^0,f,c
  1285   0011DC  362F               	rlcf	(___flmul@prod+2)^0,f,c
  1286   0011DE  3630               	rlcf	(___flmul@prod+3)^0,f,c
  1287   0011E0  AE2A               	btfss	(___flmul@grs+3)^0,7,c
  1288   0011E2  EFF5  F008         	goto	u1071
  1289   0011E6  EFF7  F008         	goto	u1070
  1290   0011EA                     u1071:
  1291   0011EA  EFF8  F008         	goto	l843
  1292   0011EE                     u1070:
  1293   0011EE  802D               	bsf	___flmul@prod^0,0,c
  1294   0011F0                     l843:
  1295   0011F0  90D8               	bcf	status,0,c
  1296   0011F2  3627               	rlcf	___flmul@grs^0,f,c
  1297   0011F4  3628               	rlcf	(___flmul@grs+1)^0,f,c
  1298   0011F6  3629               	rlcf	(___flmul@grs+2)^0,f,c
  1299   0011F8  362A               	rlcf	(___flmul@grs+3)^0,f,c
  1300   0011FA  0631               	decf	___flmul@temp^0,f,c
  1301   0011FC  A0D8               	btfss	status,0,c
  1302   0011FE  0632               	decf	(___flmul@temp+1)^0,f,c
  1303   001200                     l1761:
  1304   001200  AE2F               	btfss	(___flmul@prod+2)^0,7,c
  1305   001202  EF05  F009         	goto	u1081
  1306   001206  EF07  F009         	goto	u1080
  1307   00120A                     u1081:
  1308   00120A  EFEB  F008         	goto	l1755
  1309   00120E                     u1080:
  1310   00120E  0E00               	movlw	0
  1311   001210  6E2B               	movwf	___flmul@aexp^0,c
  1312   001212  AE2A               	btfss	(___flmul@grs+3)^0,7,c
  1313   001214  EF0E  F009         	goto	u1091
  1314   001218  EF10  F009         	goto	u1090
  1315   00121C                     u1091:
  1316   00121C  EF34  F009         	goto	l845
  1317   001220                     u1090:
  1318   001220  0EFF               	movlw	255
  1319   001222  1427               	andwf	___flmul@grs^0,w,c
  1320   001224  6E22               	movwf	??___flmul^0,c
  1321   001226  0EFF               	movlw	255
  1322   001228  1428               	andwf	(___flmul@grs+1)^0,w,c
  1323   00122A  6E23               	movwf	(??___flmul+1)^0,c
  1324   00122C  0EFF               	movlw	255
  1325   00122E  1429               	andwf	(___flmul@grs+2)^0,w,c
  1326   001230  6E24               	movwf	(??___flmul+2)^0,c
  1327   001232  0E7F               	movlw	127
  1328   001234  142A               	andwf	(___flmul@grs+3)^0,w,c
  1329   001236  6E25               	movwf	(??___flmul+3)^0,c
  1330   001238  5022               	movf	??___flmul^0,w,c
  1331   00123A  1023               	iorwf	(??___flmul+1)^0,w,c
  1332   00123C  1024               	iorwf	(??___flmul+2)^0,w,c
  1333   00123E  1025               	iorwf	(??___flmul+3)^0,w,c
  1334   001240  B4D8               	btfsc	status,2,c
  1335   001242  EF25  F009         	goto	u1101
  1336   001246  EF27  F009         	goto	u1100
  1337   00124A                     u1101:
  1338   00124A  EF2B  F009         	goto	l846
  1339   00124E                     u1100:
  1340   00124E                     l1769:
  1341   00124E  0E01               	movlw	1
  1342   001250  6E2B               	movwf	___flmul@aexp^0,c
  1343   001252  EF34  F009         	goto	l845
  1344   001256                     l846:
  1345   001256  A02D               	btfss	___flmul@prod^0,0,c
  1346   001258  EF30  F009         	goto	u1111
  1347   00125C  EF32  F009         	goto	u1110
  1348   001260                     u1111:
  1349   001260  EF34  F009         	goto	l845
  1350   001264                     u1110:
  1351   001264  EF27  F009         	goto	l1769
  1352   001268                     l845:
  1353   001268  502B               	movf	___flmul@aexp^0,w,c
  1354   00126A  B4D8               	btfsc	status,2,c
  1355   00126C  EF3A  F009         	goto	u1121
  1356   001270  EF3C  F009         	goto	u1120
  1357   001274                     u1121:
  1358   001274  EF60  F009         	goto	l1781
  1359   001278                     u1120:
  1360   001278  0E01               	movlw	1
  1361   00127A  262D               	addwf	___flmul@prod^0,f,c
  1362   00127C  0E00               	movlw	0
  1363   00127E  222E               	addwfc	(___flmul@prod+1)^0,f,c
  1364   001280  222F               	addwfc	(___flmul@prod+2)^0,f,c
  1365   001282  2230               	addwfc	(___flmul@prod+3)^0,f,c
  1366   001284  A030               	btfss	(___flmul@prod+3)^0,0,c
  1367   001286  EF47  F009         	goto	u1131
  1368   00128A  EF49  F009         	goto	u1130
  1369   00128E                     u1131:
  1370   00128E  EF60  F009         	goto	l1781
  1371   001292                     u1130:
  1372   001292  C02D  F022         	movff	___flmul@prod,??___flmul
  1373   001296  C02E  F023         	movff	___flmul@prod+1,??___flmul+1
  1374   00129A  C02F  F024         	movff	___flmul@prod+2,??___flmul+2
  1375   00129E  C030  F025         	movff	___flmul@prod+3,??___flmul+3
  1376   0012A2  3425               	rlcf	(??___flmul+3)^0,w,c
  1377   0012A4  3225               	rrcf	(??___flmul+3)^0,f,c
  1378   0012A6  3224               	rrcf	(??___flmul+2)^0,f,c
  1379   0012A8  3223               	rrcf	(??___flmul+1)^0,f,c
  1380   0012AA  3222               	rrcf	??___flmul^0,f,c
  1381   0012AC  C022  F02D         	movff	??___flmul,___flmul@prod
  1382   0012B0  C023  F02E         	movff	??___flmul+1,___flmul@prod+1
  1383   0012B4  C024  F02F         	movff	??___flmul+2,___flmul@prod+2
  1384   0012B8  C025  F030         	movff	??___flmul+3,___flmul@prod+3
  1385   0012BC  4A31               	infsnz	___flmul@temp^0,f,c
  1386   0012BE  2A32               	incf	(___flmul@temp+1)^0,f,c
  1387   0012C0                     l1781:
  1388   0012C0  BE32               	btfsc	(___flmul@temp+1)^0,7,c
  1389   0012C2  EF6B  F009         	goto	u1141
  1390   0012C6  5032               	movf	(___flmul@temp+1)^0,w,c
  1391   0012C8  E108               	bnz	u1140
  1392   0012CA  2831               	incf	___flmul@temp^0,w,c
  1393   0012CC  A0D8               	btfss	status,0,c
  1394   0012CE  EF6B  F009         	goto	u1141
  1395   0012D2  EF6D  F009         	goto	u1140
  1396   0012D6                     u1141:
  1397   0012D6  EF77  F009         	goto	l1785
  1398   0012DA                     u1140:
  1399   0012DA  0E00               	movlw	0
  1400   0012DC  6E2D               	movwf	___flmul@prod^0,c
  1401   0012DE  0E00               	movlw	0
  1402   0012E0  6E2E               	movwf	(___flmul@prod+1)^0,c
  1403   0012E2  0E80               	movlw	128
  1404   0012E4  6E2F               	movwf	(___flmul@prod+2)^0,c
  1405   0012E6  0E7F               	movlw	127
  1406   0012E8  6E30               	movwf	(___flmul@prod+3)^0,c
  1407   0012EA  EFA5  F009         	goto	l1797
  1408   0012EE                     l1785:
  1409   0012EE  BE32               	btfsc	(___flmul@temp+1)^0,7,c
  1410   0012F0  EF84  F009         	goto	u1150
  1411   0012F4  5032               	movf	(___flmul@temp+1)^0,w,c
  1412   0012F6  E106               	bnz	u1151
  1413   0012F8  0431               	decf	___flmul@temp^0,w,c
  1414   0012FA  B0D8               	btfsc	status,0,c
  1415   0012FC  EF82  F009         	goto	u1151
  1416   001300  EF84  F009         	goto	u1150
  1417   001304                     u1151:
  1418   001304  EF90  F009         	goto	l853
  1419   001308                     u1150:
  1420   001308  0E00               	movlw	0
  1421   00130A  6E2D               	movwf	___flmul@prod^0,c
  1422   00130C  0E00               	movlw	0
  1423   00130E  6E2E               	movwf	(___flmul@prod+1)^0,c
  1424   001310  0E00               	movlw	0
  1425   001312  6E2F               	movwf	(___flmul@prod+2)^0,c
  1426   001314  0E00               	movlw	0
  1427   001316  6E30               	movwf	(___flmul@prod+3)^0,c
  1428   001318  0E00               	movlw	0
  1429   00131A  6E26               	movwf	___flmul@sign^0,c
  1430   00131C  EFA5  F009         	goto	l1797
  1431   001320                     l853:
  1432   001320  C031  F02C         	movff	___flmul@temp,___flmul@bexp
  1433   001324  0EFF               	movlw	255
  1434   001326  162D               	andwf	___flmul@prod^0,f,c
  1435   001328  0EFF               	movlw	255
  1436   00132A  162E               	andwf	(___flmul@prod+1)^0,f,c
  1437   00132C  0E7F               	movlw	127
  1438   00132E  162F               	andwf	(___flmul@prod+2)^0,f,c
  1439   001330  0E00               	movlw	0
  1440   001332  1630               	andwf	(___flmul@prod+3)^0,f,c
  1441   001334  A02C               	btfss	___flmul@bexp^0,0,c
  1442   001336  EF9F  F009         	goto	u1161
  1443   00133A  EFA1  F009         	goto	u1160
  1444   00133E                     u1161:
  1445   00133E  EFA2  F009         	goto	l1795
  1446   001342                     u1160:
  1447   001342  8E2F               	bsf	(___flmul@prod+2)^0,7,c
  1448   001344                     l1795:
  1449   001344  90D8               	bcf	status,0,c
  1450   001346  302C               	rrcf	___flmul@bexp^0,w,c
  1451   001348  6E30               	movwf	(___flmul@prod+3)^0,c
  1452   00134A                     l1797:
  1453   00134A  5026               	movf	___flmul@sign^0,w,c
  1454   00134C  1230               	iorwf	(___flmul@prod+3)^0,f,c
  1455   00134E  C02D  F01A         	movff	___flmul@prod,?___flmul
  1456   001352  C02E  F01B         	movff	___flmul@prod+1,?___flmul+1
  1457   001356  C02F  F01C         	movff	___flmul@prod+2,?___flmul+2
  1458   00135A  C030  F01D         	movff	___flmul@prod+3,?___flmul+3
  1459   00135E                     l840:
  1460   00135E  0012               	return		;funcret
  1461   001360                     __end_of___flmul:
  1462                           	callstack 0
  1463                           
  1464 ;; *************** function ___flge *****************
  1465 ;; Defined at:
  1466 ;;		line 4 in file "C:\Program Files\Microchip\xc8\v2.45\pic\sources\c99\common\flge.c"
  1467 ;; Parameters:    Size  Location     Type
  1468 ;;  ff1             4    0[COMRAM] unsigned char 
  1469 ;;  ff2             4    4[COMRAM] unsigned char 
  1470 ;; Auto vars:     Size  Location     Type
  1471 ;;		None
  1472 ;; Return value:  Size  Location     Type
  1473 ;;		None               void
  1474 ;; Registers used:
  1475 ;;		wreg, status,2, status,0
  1476 ;; Tracked objects:
  1477 ;;		On entry : 0/0
  1478 ;;		On exit  : 0/0
  1479 ;;		Unchanged: 0/0
  1480 ;; Data sizes:     COMRAM   BANK0   BANK1   BANK2   BANK3   BANK4   BANK5   BANK6   BANK7   BANK8   BANK9  BANK10  BANK1
      +2  BANK13  BANK11  BANK14
  1481 ;;      Params:         8       0       0       0       0       0       0       0       0       0       0       0       
      +0       0       0       0
  1482 ;;      Locals:         0       0       0       0       0       0       0       0       0       0       0       0       
      +0       0       0       0
  1483 ;;      Temps:          4       0       0       0       0       0       0       0       0       0       0       0       
      +0       0       0       0
  1484 ;;      Totals:        12       0       0       0       0       0       0       0       0       0       0       0       
      +0       0       0       0
  1485 ;;Total ram usage:       12 bytes
  1486 ;; Hardware stack levels used: 1
  1487 ;; This function calls:
  1488 ;;		Nothing
  1489 ;; This function is called by:
  1490 ;;		_trouver_CCPR
  1491 ;; This function uses a non-reentrant model
  1492 ;;
  1493                           
  1494                           	psect	text4
  1495   001952                     __ptext4:
  1496                           	callstack 0
  1497   001952                     ___flge:
  1498                           	callstack 29
  1499   001952  0E00               	movlw	0
  1500   001954  1401               	andwf	___flge@ff1^0,w,c
  1501   001956  6E09               	movwf	??___flge^0,c
  1502   001958  0E00               	movlw	0
  1503   00195A  1402               	andwf	(___flge@ff1+1)^0,w,c
  1504   00195C  6E0A               	movwf	(??___flge+1)^0,c
  1505   00195E  0E80               	movlw	128
  1506   001960  1403               	andwf	(___flge@ff1+2)^0,w,c
  1507   001962  6E0B               	movwf	(??___flge+2)^0,c
  1508   001964  0E7F               	movlw	127
  1509   001966  1404               	andwf	(___flge@ff1+3)^0,w,c
  1510   001968  6E0C               	movwf	(??___flge+3)^0,c
  1511   00196A  5009               	movf	??___flge^0,w,c
  1512   00196C  100A               	iorwf	(??___flge+1)^0,w,c
  1513   00196E  100B               	iorwf	(??___flge+2)^0,w,c
  1514   001970  100C               	iorwf	(??___flge+3)^0,w,c
  1515   001972  A4D8               	btfss	status,2,c
  1516   001974  EFBE  F00C         	goto	u1171
  1517   001978  EFC0  F00C         	goto	u1170
  1518   00197C                     u1171:
  1519   00197C  EFC8  F00C         	goto	l1807
  1520   001980                     u1170:
  1521   001980  0E00               	movlw	0
  1522   001982  6E01               	movwf	___flge@ff1^0,c
  1523   001984  0E00               	movlw	0
  1524   001986  6E02               	movwf	(___flge@ff1+1)^0,c
  1525   001988  0E00               	movlw	0
  1526   00198A  6E03               	movwf	(___flge@ff1+2)^0,c
  1527   00198C  0E00               	movlw	0
  1528   00198E  6E04               	movwf	(___flge@ff1+3)^0,c
  1529   001990                     l1807:
  1530   001990  0E00               	movlw	0
  1531   001992  1405               	andwf	___flge@ff2^0,w,c
  1532   001994  6E09               	movwf	??___flge^0,c
  1533   001996  0E00               	movlw	0
  1534   001998  1406               	andwf	(___flge@ff2+1)^0,w,c
  1535   00199A  6E0A               	movwf	(??___flge+1)^0,c
  1536   00199C  0E80               	movlw	128
  1537   00199E  1407               	andwf	(___flge@ff2+2)^0,w,c
  1538   0019A0  6E0B               	movwf	(??___flge+2)^0,c
  1539   0019A2  0E7F               	movlw	127
  1540   0019A4  1408               	andwf	(___flge@ff2+3)^0,w,c
  1541   0019A6  6E0C               	movwf	(??___flge+3)^0,c
  1542   0019A8  5009               	movf	??___flge^0,w,c
  1543   0019AA  100A               	iorwf	(??___flge+1)^0,w,c
  1544   0019AC  100B               	iorwf	(??___flge+2)^0,w,c
  1545   0019AE  100C               	iorwf	(??___flge+3)^0,w,c
  1546   0019B0  A4D8               	btfss	status,2,c
  1547   0019B2  EFDD  F00C         	goto	u1181
  1548   0019B6  EFDF  F00C         	goto	u1180
  1549   0019BA                     u1181:
  1550   0019BA  EFE7  F00C         	goto	l1811
  1551   0019BE                     u1180:
  1552   0019BE  0E00               	movlw	0
  1553   0019C0  6E05               	movwf	___flge@ff2^0,c
  1554   0019C2  0E00               	movlw	0
  1555   0019C4  6E06               	movwf	(___flge@ff2+1)^0,c
  1556   0019C6  0E00               	movlw	0
  1557   0019C8  6E07               	movwf	(___flge@ff2+2)^0,c
  1558   0019CA  0E00               	movlw	0
  1559   0019CC  6E08               	movwf	(___flge@ff2+3)^0,c
  1560   0019CE                     l1811:
  1561   0019CE  AE04               	btfss	(___flge@ff1+3)^0,7,c
  1562   0019D0  EFEC  F00C         	goto	u1191
  1563   0019D4  EFEE  F00C         	goto	u1190
  1564   0019D8                     u1191:
  1565   0019D8  EFF7  F00C         	goto	l1815
  1566   0019DC                     u1190:
  1567   0019DC  6C01               	negf	___flge@ff1^0,c
  1568   0019DE  1E02               	comf	(___flge@ff1+1)^0,f,c
  1569   0019E0  B0D8               	btfsc	status,0,c
  1570   0019E2  2A02               	incf	(___flge@ff1+1)^0,f,c
  1571   0019E4  1E03               	comf	(___flge@ff1+2)^0,f,c
  1572   0019E6  B0D8               	btfsc	status,0,c
  1573   0019E8  2A03               	incf	(___flge@ff1+2)^0,f,c
  1574   0019EA  0E80               	movlw	128
  1575   0019EC  5604               	subfwb	(___flge@ff1+3)^0,f,c
  1576   0019EE                     l1815:
  1577   0019EE  AE08               	btfss	(___flge@ff2+3)^0,7,c
  1578   0019F0  EFFC  F00C         	goto	u1201
  1579   0019F4  EFFE  F00C         	goto	u1200
  1580   0019F8                     u1201:
  1581   0019F8  EF07  F00D         	goto	l487
  1582   0019FC                     u1200:
  1583   0019FC  6C05               	negf	___flge@ff2^0,c
  1584   0019FE  1E06               	comf	(___flge@ff2+1)^0,f,c
  1585   001A00  B0D8               	btfsc	status,0,c
  1586   001A02  2A06               	incf	(___flge@ff2+1)^0,f,c
  1587   001A04  1E07               	comf	(___flge@ff2+2)^0,f,c
  1588   001A06  B0D8               	btfsc	status,0,c
  1589   001A08  2A07               	incf	(___flge@ff2+2)^0,f,c
  1590   001A0A  0E80               	movlw	128
  1591   001A0C  5608               	subfwb	(___flge@ff2+3)^0,f,c
  1592   001A0E                     l487:
  1593   001A0E  0E00               	movlw	0
  1594   001A10  1A01               	xorwf	___flge@ff1^0,f,c
  1595   001A12  0E00               	movlw	0
  1596   001A14  1A02               	xorwf	(___flge@ff1+1)^0,f,c
  1597   001A16  0E00               	movlw	0
  1598   001A18  1A03               	xorwf	(___flge@ff1+2)^0,f,c
  1599   001A1A  0E80               	movlw	128
  1600   001A1C  1A04               	xorwf	(___flge@ff1+3)^0,f,c
  1601   001A1E  0E00               	movlw	0
  1602   001A20  1A05               	xorwf	___flge@ff2^0,f,c
  1603   001A22  0E00               	movlw	0
  1604   001A24  1A06               	xorwf	(___flge@ff2+1)^0,f,c
  1605   001A26  0E00               	movlw	0
  1606   001A28  1A07               	xorwf	(___flge@ff2+2)^0,f,c
  1607   001A2A  0E80               	movlw	128
  1608   001A2C  1A08               	xorwf	(___flge@ff2+3)^0,f,c
  1609   001A2E  5005               	movf	___flge@ff2^0,w,c
  1610   001A30  5C01               	subwf	___flge@ff1^0,w,c
  1611   001A32  5006               	movf	(___flge@ff2+1)^0,w,c
  1612   001A34  5802               	subwfb	(___flge@ff1+1)^0,w,c
  1613   001A36  5007               	movf	(___flge@ff2+2)^0,w,c
  1614   001A38  5803               	subwfb	(___flge@ff1+2)^0,w,c
  1615   001A3A  5008               	movf	(___flge@ff2+3)^0,w,c
  1616   001A3C  5804               	subwfb	(___flge@ff1+3)^0,w,c
  1617   001A3E  B0D8               	btfsc	status,0,c
  1618   001A40  EF24  F00D         	goto	u1211
  1619   001A44  EF26  F00D         	goto	u1210
  1620   001A48                     u1211:
  1621   001A48  EF29  F00D         	goto	l1821
  1622   001A4C                     u1210:
  1623   001A4C  90D8               	bcf	status,0,c
  1624   001A4E  EF2A  F00D         	goto	l492
  1625   001A52                     l1821:
  1626   001A52  80D8               	bsf	status,0,c
  1627   001A54                     l492:
  1628   001A54  0012               	return		;funcret
  1629   001A56                     __end_of___flge:
  1630                           	callstack 0
  1631                           
  1632 ;; *************** function ___fldiv *****************
  1633 ;; Defined at:
  1634 ;;		line 11 in file "C:\Program Files\Microchip\xc8\v2.45\pic\sources\c99\common\sprcdiv.c"
  1635 ;; Parameters:    Size  Location     Type
  1636 ;;  b               4    0[COMRAM] unsigned char 
  1637 ;;  a               4    4[COMRAM] unsigned char 
  1638 ;; Auto vars:     Size  Location     Type
  1639 ;;  grs             4   19[COMRAM] unsigned long 
  1640 ;;  rem             4   12[COMRAM] unsigned long 
  1641 ;;  new_exp         2   17[COMRAM] short 
  1642 ;;  aexp            1   24[COMRAM] unsigned char 
  1643 ;;  bexp            1   23[COMRAM] unsigned char 
  1644 ;;  sign            1   16[COMRAM] unsigned char 
  1645 ;; Return value:  Size  Location     Type
  1646 ;;                  4    0[COMRAM] unsigned char 
  1647 ;; Registers used:
  1648 ;;		wreg, status,2, status,0
  1649 ;; Tracked objects:
  1650 ;;		On entry : 0/0
  1651 ;;		On exit  : 0/0
  1652 ;;		Unchanged: 0/0
  1653 ;; Data sizes:     COMRAM   BANK0   BANK1   BANK2   BANK3   BANK4   BANK5   BANK6   BANK7   BANK8   BANK9  BANK10  BANK1
      +2  BANK13  BANK11  BANK14
  1654 ;;      Params:         8       0       0       0       0       0       0       0       0       0       0       0       
      +0       0       0       0
  1655 ;;      Locals:        13       0       0       0       0       0       0       0       0       0       0       0       
      +0       0       0       0
  1656 ;;      Temps:          4       0       0       0       0       0       0       0       0       0       0       0       
      +0       0       0       0
  1657 ;;      Totals:        25       0       0       0       0       0       0       0       0       0       0       0       
      +0       0       0       0
  1658 ;;Total ram usage:       25 bytes
  1659 ;; Hardware stack levels used: 1
  1660 ;; This function calls:
  1661 ;;		Nothing
  1662 ;; This function is called by:
  1663 ;;		_trouver_CCPR
  1664 ;; This function uses a non-reentrant model
  1665 ;;
  1666                           
  1667                           	psect	text5
  1668   001360                     __ptext5:
  1669                           	callstack 0
  1670   001360                     ___fldiv:
  1671                           	callstack 29
  1672   001360  5004               	movf	(___fldiv@b+3)^0,w,c
  1673   001362  0B80               	andlw	128
  1674   001364  6E11               	movwf	___fldiv@sign^0,c
  1675   001366  5004               	movf	(___fldiv@b+3)^0,w,c
  1676   001368  2404               	addwf	(___fldiv@b+3)^0,w,c
  1677   00136A  6E18               	movwf	___fldiv@bexp^0,c
  1678   00136C  AE03               	btfss	(___fldiv@b+2)^0,7,c
  1679   00136E  EFBB  F009         	goto	u751
  1680   001372  EFBD  F009         	goto	u750
  1681   001376                     u751:
  1682   001376  EFBE  F009         	goto	l1541
  1683   00137A                     u750:
  1684   00137A  8018               	bsf	___fldiv@bexp^0,0,c
  1685   00137C                     l1541:
  1686   00137C  5018               	movf	___fldiv@bexp^0,w,c
  1687   00137E  B4D8               	btfsc	status,2,c
  1688   001380  EFC4  F009         	goto	u761
  1689   001384  EFC6  F009         	goto	u760
  1690   001388                     u761:
  1691   001388  EFDB  F009         	goto	l1551
  1692   00138C                     u760:
  1693   00138C  2818               	incf	___fldiv@bexp^0,w,c
  1694   00138E  A4D8               	btfss	status,2,c
  1695   001390  EFCC  F009         	goto	u771
  1696   001394  EFCE  F009         	goto	u770
  1697   001398                     u771:
  1698   001398  EFD6  F009         	goto	l1547
  1699   00139C                     u770:
  1700   00139C  0E00               	movlw	0
  1701   00139E  6E01               	movwf	___fldiv@b^0,c
  1702   0013A0  0E00               	movlw	0
  1703   0013A2  6E02               	movwf	(___fldiv@b+1)^0,c
  1704   0013A4  0E00               	movlw	0
  1705   0013A6  6E03               	movwf	(___fldiv@b+2)^0,c
  1706   0013A8  0E00               	movlw	0
  1707   0013AA  6E04               	movwf	(___fldiv@b+3)^0,c
  1708   0013AC                     l1547:
  1709   0013AC  8E03               	bsf	(___fldiv@b+2)^0,7,c
  1710   0013AE  0E00               	movlw	0
  1711   0013B0  6E04               	movwf	(___fldiv@b+3)^0,c
  1712   0013B2  EFE3  F009         	goto	l1553
  1713   0013B6                     l1551:
  1714   0013B6  0E00               	movlw	0
  1715   0013B8  6E01               	movwf	___fldiv@b^0,c
  1716   0013BA  0E00               	movlw	0
  1717   0013BC  6E02               	movwf	(___fldiv@b+1)^0,c
  1718   0013BE  0E00               	movlw	0
  1719   0013C0  6E03               	movwf	(___fldiv@b+2)^0,c
  1720   0013C2  0E00               	movlw	0
  1721   0013C4  6E04               	movwf	(___fldiv@b+3)^0,c
  1722   0013C6                     l1553:
  1723   0013C6  5008               	movf	(___fldiv@a+3)^0,w,c
  1724   0013C8  0B80               	andlw	128
  1725   0013CA  1A11               	xorwf	___fldiv@sign^0,f,c
  1726   0013CC  5008               	movf	(___fldiv@a+3)^0,w,c
  1727   0013CE  2408               	addwf	(___fldiv@a+3)^0,w,c
  1728   0013D0  6E19               	movwf	___fldiv@aexp^0,c
  1729   0013D2  AE07               	btfss	(___fldiv@a+2)^0,7,c
  1730   0013D4  EFEE  F009         	goto	u781
  1731   0013D8  EFF0  F009         	goto	u780
  1732   0013DC                     u781:
  1733   0013DC  EFF1  F009         	goto	l1561
  1734   0013E0                     u780:
  1735   0013E0  8019               	bsf	___fldiv@aexp^0,0,c
  1736   0013E2                     l1561:
  1737   0013E2  5019               	movf	___fldiv@aexp^0,w,c
  1738   0013E4  B4D8               	btfsc	status,2,c
  1739   0013E6  EFF7  F009         	goto	u791
  1740   0013EA  EFF9  F009         	goto	u790
  1741   0013EE                     u791:
  1742   0013EE  EF0E  F00A         	goto	l1571
  1743   0013F2                     u790:
  1744   0013F2  2819               	incf	___fldiv@aexp^0,w,c
  1745   0013F4  A4D8               	btfss	status,2,c
  1746   0013F6  EFFF  F009         	goto	u801
  1747   0013FA  EF01  F00A         	goto	u800
  1748   0013FE                     u801:
  1749   0013FE  EF09  F00A         	goto	l1567
  1750   001402                     u800:
  1751   001402  0E00               	movlw	0
  1752   001404  6E05               	movwf	___fldiv@a^0,c
  1753   001406  0E00               	movlw	0
  1754   001408  6E06               	movwf	(___fldiv@a+1)^0,c
  1755   00140A  0E00               	movlw	0
  1756   00140C  6E07               	movwf	(___fldiv@a+2)^0,c
  1757   00140E  0E00               	movlw	0
  1758   001410  6E08               	movwf	(___fldiv@a+3)^0,c
  1759   001412                     l1567:
  1760   001412  8E07               	bsf	(___fldiv@a+2)^0,7,c
  1761   001414  0E00               	movlw	0
  1762   001416  6E08               	movwf	(___fldiv@a+3)^0,c
  1763   001418  EF16  F00A         	goto	l1573
  1764   00141C                     l1571:
  1765   00141C  0E00               	movlw	0
  1766   00141E  6E05               	movwf	___fldiv@a^0,c
  1767   001420  0E00               	movlw	0
  1768   001422  6E06               	movwf	(___fldiv@a+1)^0,c
  1769   001424  0E00               	movlw	0
  1770   001426  6E07               	movwf	(___fldiv@a+2)^0,c
  1771   001428  0E00               	movlw	0
  1772   00142A  6E08               	movwf	(___fldiv@a+3)^0,c
  1773   00142C                     l1573:
  1774   00142C  5005               	movf	___fldiv@a^0,w,c
  1775   00142E  1006               	iorwf	(___fldiv@a+1)^0,w,c
  1776   001430  1007               	iorwf	(___fldiv@a+2)^0,w,c
  1777   001432  1008               	iorwf	(___fldiv@a+3)^0,w,c
  1778   001434  A4D8               	btfss	status,2,c
  1779   001436  EF1F  F00A         	goto	u811
  1780   00143A  EF21  F00A         	goto	u810
  1781   00143E                     u811:
  1782   00143E  EF39  F00A         	goto	l1585
  1783   001442                     u810:
  1784   001442  0E00               	movlw	0
  1785   001444  6E01               	movwf	___fldiv@b^0,c
  1786   001446  0E00               	movlw	0
  1787   001448  6E02               	movwf	(___fldiv@b+1)^0,c
  1788   00144A  0E00               	movlw	0
  1789   00144C  6E03               	movwf	(___fldiv@b+2)^0,c
  1790   00144E  0E00               	movlw	0
  1791   001450  6E04               	movwf	(___fldiv@b+3)^0,c
  1792   001452  0E80               	movlw	128
  1793   001454  1203               	iorwf	(___fldiv@b+2)^0,f,c
  1794   001456  0E7F               	movlw	127
  1795   001458  1204               	iorwf	(___fldiv@b+3)^0,f,c
  1796   00145A                     l1579:
  1797   00145A  5011               	movf	___fldiv@sign^0,w,c
  1798   00145C  1204               	iorwf	(___fldiv@b+3)^0,f,c
  1799   00145E  C001  F001         	movff	___fldiv@b,?___fldiv
  1800   001462  C002  F002         	movff	___fldiv@b+1,?___fldiv+1
  1801   001466  C003  F003         	movff	___fldiv@b+2,?___fldiv+2
  1802   00146A  C004  F004         	movff	___fldiv@b+3,?___fldiv+3
  1803   00146E  EF7C  F00B         	goto	l804
  1804   001472                     l1585:
  1805   001472  5018               	movf	___fldiv@bexp^0,w,c
  1806   001474  A4D8               	btfss	status,2,c
  1807   001476  EF3F  F00A         	goto	u821
  1808   00147A  EF41  F00A         	goto	u820
  1809   00147E                     u821:
  1810   00147E  EF4B  F00A         	goto	l1593
  1811   001482                     u820:
  1812   001482  0E00               	movlw	0
  1813   001484  6E01               	movwf	?___fldiv^0,c
  1814   001486  0E00               	movlw	0
  1815   001488  6E02               	movwf	(?___fldiv+1)^0,c
  1816   00148A  0E00               	movlw	0
  1817   00148C  6E03               	movwf	(?___fldiv+2)^0,c
  1818   00148E  0E00               	movlw	0
  1819   001490  6E04               	movwf	(?___fldiv+3)^0,c
  1820   001492  EF7C  F00B         	goto	l804
  1821   001496                     l1593:
  1822   001496  5019               	movf	___fldiv@aexp^0,w,c
  1823   001498  C018  F009         	movff	___fldiv@bexp,??___fldiv
  1824   00149C  6A0A               	clrf	(??___fldiv+1)^0,c
  1825   00149E  5E09               	subwf	??___fldiv^0,f,c
  1826   0014A0  0E00               	movlw	0
  1827   0014A2  5A0A               	subwfb	(??___fldiv+1)^0,f,c
  1828   0014A4  0E7F               	movlw	127
  1829   0014A6  2409               	addwf	??___fldiv^0,w,c
  1830   0014A8  6E12               	movwf	___fldiv@new_exp^0,c
  1831   0014AA  0E00               	movlw	0
  1832   0014AC  200A               	addwfc	(??___fldiv+1)^0,w,c
  1833   0014AE  6E13               	movwf	(___fldiv@new_exp+1)^0,c
  1834   0014B0  C001  F00D         	movff	___fldiv@b,___fldiv@rem
  1835   0014B4  C002  F00E         	movff	___fldiv@b+1,___fldiv@rem+1
  1836   0014B8  C003  F00F         	movff	___fldiv@b+2,___fldiv@rem+2
  1837   0014BC  C004  F010         	movff	___fldiv@b+3,___fldiv@rem+3
  1838   0014C0  0E00               	movlw	0
  1839   0014C2  6E01               	movwf	___fldiv@b^0,c
  1840   0014C4  0E00               	movlw	0
  1841   0014C6  6E02               	movwf	(___fldiv@b+1)^0,c
  1842   0014C8  0E00               	movlw	0
  1843   0014CA  6E03               	movwf	(___fldiv@b+2)^0,c
  1844   0014CC  0E00               	movlw	0
  1845   0014CE  6E04               	movwf	(___fldiv@b+3)^0,c
  1846   0014D0  0E00               	movlw	0
  1847   0014D2  6E14               	movwf	___fldiv@grs^0,c
  1848   0014D4  0E00               	movlw	0
  1849   0014D6  6E15               	movwf	(___fldiv@grs+1)^0,c
  1850   0014D8  0E00               	movlw	0
  1851   0014DA  6E16               	movwf	(___fldiv@grs+2)^0,c
  1852   0014DC  0E00               	movlw	0
  1853   0014DE  6E17               	movwf	(___fldiv@grs+3)^0,c
  1854   0014E0  0E00               	movlw	0
  1855   0014E2  6E19               	movwf	___fldiv@aexp^0,c
  1856   0014E4  EFAC  F00A         	goto	l806
  1857   0014E8                     l1603:
  1858   0014E8  5019               	movf	___fldiv@aexp^0,w,c
  1859   0014EA  B4D8               	btfsc	status,2,c
  1860   0014EC  EF7A  F00A         	goto	u831
  1861   0014F0  EF7C  F00A         	goto	u830
  1862   0014F4                     u831:
  1863   0014F4  EF93  F00A         	goto	l1611
  1864   0014F8                     u830:
  1865   0014F8  90D8               	bcf	status,0,c
  1866   0014FA  360D               	rlcf	___fldiv@rem^0,f,c
  1867   0014FC  360E               	rlcf	(___fldiv@rem+1)^0,f,c
  1868   0014FE  360F               	rlcf	(___fldiv@rem+2)^0,f,c
  1869   001500  3610               	rlcf	(___fldiv@rem+3)^0,f,c
  1870   001502  90D8               	bcf	status,0,c
  1871   001504  3601               	rlcf	___fldiv@b^0,f,c
  1872   001506  3602               	rlcf	(___fldiv@b+1)^0,f,c
  1873   001508  3603               	rlcf	(___fldiv@b+2)^0,f,c
  1874   00150A  3604               	rlcf	(___fldiv@b+3)^0,f,c
  1875   00150C  AE17               	btfss	(___fldiv@grs+3)^0,7,c
  1876   00150E  EF8B  F00A         	goto	u841
  1877   001512  EF8D  F00A         	goto	u840
  1878   001516                     u841:
  1879   001516  EF8E  F00A         	goto	l809
  1880   00151A                     u840:
  1881   00151A  8001               	bsf	___fldiv@b^0,0,c
  1882   00151C                     l809:
  1883   00151C  90D8               	bcf	status,0,c
  1884   00151E  3614               	rlcf	___fldiv@grs^0,f,c
  1885   001520  3615               	rlcf	(___fldiv@grs+1)^0,f,c
  1886   001522  3616               	rlcf	(___fldiv@grs+2)^0,f,c
  1887   001524  3617               	rlcf	(___fldiv@grs+3)^0,f,c
  1888   001526                     l1611:
  1889   001526  5005               	movf	___fldiv@a^0,w,c
  1890   001528  5C0D               	subwf	___fldiv@rem^0,w,c
  1891   00152A  5006               	movf	(___fldiv@a+1)^0,w,c
  1892   00152C  580E               	subwfb	(___fldiv@rem+1)^0,w,c
  1893   00152E  5007               	movf	(___fldiv@a+2)^0,w,c
  1894   001530  580F               	subwfb	(___fldiv@rem+2)^0,w,c
  1895   001532  5008               	movf	(___fldiv@a+3)^0,w,c
  1896   001534  5810               	subwfb	(___fldiv@rem+3)^0,w,c
  1897   001536  A0D8               	btfss	status,0,c
  1898   001538  EFA0  F00A         	goto	u851
  1899   00153C  EFA2  F00A         	goto	u850
  1900   001540                     u851:
  1901   001540  EFAB  F00A         	goto	l1617
  1902   001544                     u850:
  1903   001544  8C17               	bsf	(___fldiv@grs+3)^0,6,c
  1904   001546  5005               	movf	___fldiv@a^0,w,c
  1905   001548  5E0D               	subwf	___fldiv@rem^0,f,c
  1906   00154A  5006               	movf	(___fldiv@a+1)^0,w,c
  1907   00154C  5A0E               	subwfb	(___fldiv@rem+1)^0,f,c
  1908   00154E  5007               	movf	(___fldiv@a+2)^0,w,c
  1909   001550  5A0F               	subwfb	(___fldiv@rem+2)^0,f,c
  1910   001552  5008               	movf	(___fldiv@a+3)^0,w,c
  1911   001554  5A10               	subwfb	(___fldiv@rem+3)^0,f,c
  1912   001556                     l1617:
  1913   001556  2A19               	incf	___fldiv@aexp^0,f,c
  1914   001558                     l806:
  1915   001558  0E19               	movlw	25
  1916   00155A  6419               	cpfsgt	___fldiv@aexp^0,c
  1917   00155C  EFB2  F00A         	goto	u861
  1918   001560  EFB4  F00A         	goto	u860
  1919   001564                     u861:
  1920   001564  EF74  F00A         	goto	l1603
  1921   001568                     u860:
  1922   001568  500D               	movf	___fldiv@rem^0,w,c
  1923   00156A  100E               	iorwf	(___fldiv@rem+1)^0,w,c
  1924   00156C  100F               	iorwf	(___fldiv@rem+2)^0,w,c
  1925   00156E  1010               	iorwf	(___fldiv@rem+3)^0,w,c
  1926   001570  B4D8               	btfsc	status,2,c
  1927   001572  EFBD  F00A         	goto	u871
  1928   001576  EFBF  F00A         	goto	u870
  1929   00157A                     u871:
  1930   00157A  EFD7  F00A         	goto	l1629
  1931   00157E                     u870:
  1932   00157E  8014               	bsf	___fldiv@grs^0,0,c
  1933   001580  EFD7  F00A         	goto	l1629
  1934   001584                     l1623:
  1935   001584  90D8               	bcf	status,0,c
  1936   001586  3601               	rlcf	___fldiv@b^0,f,c
  1937   001588  3602               	rlcf	(___fldiv@b+1)^0,f,c
  1938   00158A  3603               	rlcf	(___fldiv@b+2)^0,f,c
  1939   00158C  3604               	rlcf	(___fldiv@b+3)^0,f,c
  1940   00158E  AE17               	btfss	(___fldiv@grs+3)^0,7,c
  1941   001590  EFCC  F00A         	goto	u881
  1942   001594  EFCE  F00A         	goto	u880
  1943   001598                     u881:
  1944   001598  EFCF  F00A         	goto	l815
  1945   00159C                     u880:
  1946   00159C  8001               	bsf	___fldiv@b^0,0,c
  1947   00159E                     l815:
  1948   00159E  90D8               	bcf	status,0,c
  1949   0015A0  3614               	rlcf	___fldiv@grs^0,f,c
  1950   0015A2  3615               	rlcf	(___fldiv@grs+1)^0,f,c
  1951   0015A4  3616               	rlcf	(___fldiv@grs+2)^0,f,c
  1952   0015A6  3617               	rlcf	(___fldiv@grs+3)^0,f,c
  1953   0015A8  0612               	decf	___fldiv@new_exp^0,f,c
  1954   0015AA  A0D8               	btfss	status,0,c
  1955   0015AC  0613               	decf	(___fldiv@new_exp+1)^0,f,c
  1956   0015AE                     l1629:
  1957   0015AE  AE03               	btfss	(___fldiv@b+2)^0,7,c
  1958   0015B0  EFDC  F00A         	goto	u891
  1959   0015B4  EFDE  F00A         	goto	u890
  1960   0015B8                     u891:
  1961   0015B8  EFC2  F00A         	goto	l1623
  1962   0015BC                     u890:
  1963   0015BC  0E00               	movlw	0
  1964   0015BE  6E19               	movwf	___fldiv@aexp^0,c
  1965   0015C0  AE17               	btfss	(___fldiv@grs+3)^0,7,c
  1966   0015C2  EFE5  F00A         	goto	u901
  1967   0015C6  EFE7  F00A         	goto	u900
  1968   0015CA                     u901:
  1969   0015CA  EF0B  F00B         	goto	l817
  1970   0015CE                     u900:
  1971   0015CE  0EFF               	movlw	255
  1972   0015D0  1414               	andwf	___fldiv@grs^0,w,c
  1973   0015D2  6E09               	movwf	??___fldiv^0,c
  1974   0015D4  0EFF               	movlw	255
  1975   0015D6  1415               	andwf	(___fldiv@grs+1)^0,w,c
  1976   0015D8  6E0A               	movwf	(??___fldiv+1)^0,c
  1977   0015DA  0EFF               	movlw	255
  1978   0015DC  1416               	andwf	(___fldiv@grs+2)^0,w,c
  1979   0015DE  6E0B               	movwf	(??___fldiv+2)^0,c
  1980   0015E0  0E7F               	movlw	127
  1981   0015E2  1417               	andwf	(___fldiv@grs+3)^0,w,c
  1982   0015E4  6E0C               	movwf	(??___fldiv+3)^0,c
  1983   0015E6  5009               	movf	??___fldiv^0,w,c
  1984   0015E8  100A               	iorwf	(??___fldiv+1)^0,w,c
  1985   0015EA  100B               	iorwf	(??___fldiv+2)^0,w,c
  1986   0015EC  100C               	iorwf	(??___fldiv+3)^0,w,c
  1987   0015EE  B4D8               	btfsc	status,2,c
  1988   0015F0  EFFC  F00A         	goto	u911
  1989   0015F4  EFFE  F00A         	goto	u910
  1990   0015F8                     u911:
  1991   0015F8  EF02  F00B         	goto	l818
  1992   0015FC                     u910:
  1993   0015FC                     l1637:
  1994   0015FC  0E01               	movlw	1
  1995   0015FE  6E19               	movwf	___fldiv@aexp^0,c
  1996   001600  EF0B  F00B         	goto	l817
  1997   001604                     l818:
  1998   001604  A001               	btfss	___fldiv@b^0,0,c
  1999   001606  EF07  F00B         	goto	u921
  2000   00160A  EF09  F00B         	goto	u920
  2001   00160E                     u921:
  2002   00160E  EF0B  F00B         	goto	l817
  2003   001612                     u920:
  2004   001612  EFFE  F00A         	goto	l1637
  2005   001616                     l817:
  2006   001616  5019               	movf	___fldiv@aexp^0,w,c
  2007   001618  B4D8               	btfsc	status,2,c
  2008   00161A  EF11  F00B         	goto	u931
  2009   00161E  EF13  F00B         	goto	u930
  2010   001622                     u931:
  2011   001622  EF37  F00B         	goto	l1649
  2012   001626                     u930:
  2013   001626  0E01               	movlw	1
  2014   001628  2601               	addwf	___fldiv@b^0,f,c
  2015   00162A  0E00               	movlw	0
  2016   00162C  2202               	addwfc	(___fldiv@b+1)^0,f,c
  2017   00162E  2203               	addwfc	(___fldiv@b+2)^0,f,c
  2018   001630  2204               	addwfc	(___fldiv@b+3)^0,f,c
  2019   001632  A004               	btfss	(___fldiv@b+3)^0,0,c
  2020   001634  EF1E  F00B         	goto	u941
  2021   001638  EF20  F00B         	goto	u940
  2022   00163C                     u941:
  2023   00163C  EF37  F00B         	goto	l1649
  2024   001640                     u940:
  2025   001640  C001  F009         	movff	___fldiv@b,??___fldiv
  2026   001644  C002  F00A         	movff	___fldiv@b+1,??___fldiv+1
  2027   001648  C003  F00B         	movff	___fldiv@b+2,??___fldiv+2
  2028   00164C  C004  F00C         	movff	___fldiv@b+3,??___fldiv+3
  2029   001650  340C               	rlcf	(??___fldiv+3)^0,w,c
  2030   001652  320C               	rrcf	(??___fldiv+3)^0,f,c
  2031   001654  320B               	rrcf	(??___fldiv+2)^0,f,c
  2032   001656  320A               	rrcf	(??___fldiv+1)^0,f,c
  2033   001658  3209               	rrcf	??___fldiv^0,f,c
  2034   00165A  C009  F001         	movff	??___fldiv,___fldiv@b
  2035   00165E  C00A  F002         	movff	??___fldiv+1,___fldiv@b+1
  2036   001662  C00B  F003         	movff	??___fldiv+2,___fldiv@b+2
  2037   001666  C00C  F004         	movff	??___fldiv+3,___fldiv@b+3
  2038   00166A  4A12               	infsnz	___fldiv@new_exp^0,f,c
  2039   00166C  2A13               	incf	(___fldiv@new_exp+1)^0,f,c
  2040   00166E                     l1649:
  2041   00166E  BE13               	btfsc	(___fldiv@new_exp+1)^0,7,c
  2042   001670  EF42  F00B         	goto	u951
  2043   001674  5013               	movf	(___fldiv@new_exp+1)^0,w,c
  2044   001676  E108               	bnz	u950
  2045   001678  2812               	incf	___fldiv@new_exp^0,w,c
  2046   00167A  A0D8               	btfss	status,0,c
  2047   00167C  EF42  F00B         	goto	u951
  2048   001680  EF44  F00B         	goto	u950
  2049   001684                     u951:
  2050   001684  EF4F  F00B         	goto	l1653
  2051   001688                     u950:
  2052   001688  0E00               	movlw	0
  2053   00168A  6E13               	movwf	(___fldiv@new_exp+1)^0,c
  2054   00168C  6812               	setf	___fldiv@new_exp^0,c
  2055   00168E  0E00               	movlw	0
  2056   001690  6E01               	movwf	___fldiv@b^0,c
  2057   001692  0E00               	movlw	0
  2058   001694  6E02               	movwf	(___fldiv@b+1)^0,c
  2059   001696  0E00               	movlw	0
  2060   001698  6E03               	movwf	(___fldiv@b+2)^0,c
  2061   00169A  0E00               	movlw	0
  2062   00169C  6E04               	movwf	(___fldiv@b+3)^0,c
  2063   00169E                     l1653:
  2064   00169E  BE13               	btfsc	(___fldiv@new_exp+1)^0,7,c
  2065   0016A0  EF5C  F00B         	goto	u960
  2066   0016A4  5013               	movf	(___fldiv@new_exp+1)^0,w,c
  2067   0016A6  E106               	bnz	u961
  2068   0016A8  0412               	decf	___fldiv@new_exp^0,w,c
  2069   0016AA  B0D8               	btfsc	status,0,c
  2070   0016AC  EF5A  F00B         	goto	u961
  2071   0016B0  EF5C  F00B         	goto	u960
  2072   0016B4                     u961:
  2073   0016B4  EF6A  F00B         	goto	l1657
  2074   0016B8                     u960:
  2075   0016B8  0E00               	movlw	0
  2076   0016BA  6E13               	movwf	(___fldiv@new_exp+1)^0,c
  2077   0016BC  0E00               	movlw	0
  2078   0016BE  6E12               	movwf	___fldiv@new_exp^0,c
  2079   0016C0  0E00               	movlw	0
  2080   0016C2  6E01               	movwf	___fldiv@b^0,c
  2081   0016C4  0E00               	movlw	0
  2082   0016C6  6E02               	movwf	(___fldiv@b+1)^0,c
  2083   0016C8  0E00               	movlw	0
  2084   0016CA  6E03               	movwf	(___fldiv@b+2)^0,c
  2085   0016CC  0E00               	movlw	0
  2086   0016CE  6E04               	movwf	(___fldiv@b+3)^0,c
  2087   0016D0  0E00               	movlw	0
  2088   0016D2  6E11               	movwf	___fldiv@sign^0,c
  2089   0016D4                     l1657:
  2090   0016D4  C012  F018         	movff	___fldiv@new_exp,___fldiv@bexp
  2091   0016D8  A018               	btfss	___fldiv@bexp^0,0,c
  2092   0016DA  EF71  F00B         	goto	u971
  2093   0016DE  EF73  F00B         	goto	u970
  2094   0016E2                     u971:
  2095   0016E2  EF76  F00B         	goto	l1663
  2096   0016E6                     u970:
  2097   0016E6  8E03               	bsf	(___fldiv@b+2)^0,7,c
  2098   0016E8  EF77  F00B         	goto	l1665
  2099   0016EC                     l1663:
  2100   0016EC  9E03               	bcf	(___fldiv@b+2)^0,7,c
  2101   0016EE                     l1665:
  2102   0016EE  90D8               	bcf	status,0,c
  2103   0016F0  3018               	rrcf	___fldiv@bexp^0,w,c
  2104   0016F2  6E04               	movwf	(___fldiv@b+3)^0,c
  2105   0016F4  EF2D  F00A         	goto	l1579
  2106   0016F8                     l804:
  2107   0016F8  0012               	return		;funcret
  2108   0016FA                     __end_of___fldiv:
  2109                           	callstack 0
  2110                           
  2111 ;; *************** function _printf *****************
  2112 ;; Defined at:
  2113 ;;		line 5 in file "C:\Program Files\Microchip\xc8\v2.45\pic\sources\c99\common\printf.c"
  2114 ;; Parameters:    Size  Location     Type
  2115 ;;  fmt             1   20[COMRAM] PTR const unsigned char 
  2116 ;;		 -> STR_1(52), 
  2117 ;; Auto vars:     Size  Location     Type
  2118 ;;  ret             2    0        int 
  2119 ;;  ap              1   21[COMRAM] PTR void [1]
  2120 ;;		 -> ?_printf(2), 
  2121 ;; Return value:  Size  Location     Type
  2122 ;;                  2   20[COMRAM] int 
  2123 ;; Registers used:
  2124 ;;		wreg, fsr1l, fsr1h, fsr2l, fsr2h, status,2, status,0, tblptrl, tblptrh, tblptru, cstack
  2125 ;; Tracked objects:
  2126 ;;		On entry : 0/0
  2127 ;;		On exit  : 0/0
  2128 ;;		Unchanged: 0/0
  2129 ;; Data sizes:     COMRAM   BANK0   BANK1   BANK2   BANK3   BANK4   BANK5   BANK6   BANK7   BANK8   BANK9  BANK10  BANK1
      +2  BANK13  BANK11  BANK14
  2130 ;;      Params:         1       0       0       0       0       0       0       0       0       0       0       0       
      +0       0       0       0
  2131 ;;      Locals:         1       0       0       0       0       0       0       0       0       0       0       0       
      +0       0       0       0
  2132 ;;      Temps:          0       0       0       0       0       0       0       0       0       0       0       0       
      +0       0       0       0
  2133 ;;      Totals:         2       0       0       0       0       0       0       0       0       0       0       0       
      +0       0       0       0
  2134 ;;Total ram usage:        2 bytes
  2135 ;; Hardware stack levels used: 1
  2136 ;; Hardware stack levels required when called: 5
  2137 ;; This function calls:
  2138 ;;		_vfprintf
  2139 ;; This function is called by:
  2140 ;;		_main
  2141 ;; This function uses a non-reentrant model
  2142 ;;
  2143                           
  2144                           	psect	text6
  2145   001D6C                     __ptext6:
  2146                           	callstack 0
  2147   001D6C                     _printf:
  2148                           	callstack 25
  2149   001D6C  0E16               	movlw	low (?_printf+1)
  2150   001D6E  6E16               	movwf	printf@ap^0,c
  2151   001D70  0E00               	movlw	0
  2152   001D72  6E10               	movwf	vfprintf@fp^0,c
  2153   001D74  0E00               	movlw	0
  2154   001D76  6E11               	movwf	(vfprintf@fp+1)^0,c
  2155   001D78  C015  F012         	movff	printf@fmt,vfprintf@fmt
  2156   001D7C  0E16               	movlw	low printf@ap
  2157   001D7E  6E13               	movwf	vfprintf@ap^0,c
  2158   001D80  EC24  F00E         	call	_vfprintf	;wreg free
  2159   001D84  0012               	return		;funcret
  2160   001D86                     __end_of_printf:
  2161                           	callstack 0
  2162                           
  2163 ;; *************** function _vfprintf *****************
  2164 ;; Defined at:
  2165 ;;		line 1817 in file "C:\Program Files\Microchip\xc8\v2.45\pic\sources\c99\common\doprnt.c"
  2166 ;; Parameters:    Size  Location     Type
  2167 ;;  fp              2   15[COMRAM] PTR struct _IO_FILE
  2168 ;;		 -> NULL(0), 
  2169 ;;  fmt             1   17[COMRAM] PTR const unsigned char 
  2170 ;;		 -> STR_1(52), 
  2171 ;;  ap              1   18[COMRAM] PTR PTR void 
  2172 ;;		 -> printf@ap(1), 
  2173 ;; Auto vars:     Size  Location     Type
  2174 ;;  cfmt            1   19[COMRAM] PTR unsigned char 
  2175 ;;		 -> STR_1(52), 
  2176 ;; Return value:  Size  Location     Type
  2177 ;;                  2   15[COMRAM] int 
  2178 ;; Registers used:
  2179 ;;		wreg, fsr1l, fsr1h, fsr2l, fsr2h, status,2, status,0, tblptrl, tblptrh, tblptru, cstack
  2180 ;; Tracked objects:
  2181 ;;		On entry : 0/0
  2182 ;;		On exit  : 0/0
  2183 ;;		Unchanged: 0/0
  2184 ;; Data sizes:     COMRAM   BANK0   BANK1   BANK2   BANK3   BANK4   BANK5   BANK6   BANK7   BANK8   BANK9  BANK10  BANK1
      +2  BANK13  BANK11  BANK14
  2185 ;;      Params:         4       0       0       0       0       0       0       0       0       0       0       0       
      +0       0       0       0
  2186 ;;      Locals:         1       0       0       0       0       0       0       0       0       0       0       0       
      +0       0       0       0
  2187 ;;      Temps:          0       0       0       0       0       0       0       0       0       0       0       0       
      +0       0       0       0
  2188 ;;      Totals:         5       0       0       0       0       0       0       0       0       0       0       0       
      +0       0       0       0
  2189 ;;Total ram usage:        5 bytes
  2190 ;; Hardware stack levels used: 1
  2191 ;; Hardware stack levels required when called: 4
  2192 ;; This function calls:
  2193 ;;		_vfpfcnvrt
  2194 ;; This function is called by:
  2195 ;;		_printf
  2196 ;; This function uses a non-reentrant model
  2197 ;;
  2198                           
  2199                           	psect	text7
  2200   001C48                     __ptext7:
  2201                           	callstack 0
  2202   001C48                     _vfprintf:
  2203                           	callstack 25
  2204   001C48                     
  2205                           ;C:\Program Files\Microchip\xc8\v2.45\pic\sources\c99\common\doprnt.c: 1817: int vfprint
      +                          f(FILE *fp, const char *fmt, va_list ap);C:\Program Files\Microchip\xc8\v2.45\pic\source
      +                          s\c99\common\doprnt.c: 1818: {;C:\Program Files\Microchip\xc8\v2.45\pic\sources\c99\comm
      +                          on\doprnt.c: 1820:     char *cfmt;;C:\Program Files\Microchip\xc8\v2.45\pic\sources\c99\
      +                          common\doprnt.c: 1822:     cfmt = (char *)fmt;
  2206   001C48  C012  F014         	movff	vfprintf@fmt,vfprintf@cfmt
  2207                           
  2208                           ;C:\Program Files\Microchip\xc8\v2.45\pic\sources\c99\common\doprnt.c: 1826:     while (
      +                          *cfmt) {
  2209   001C4C  EF32  F00E         	goto	l1873
  2210   001C50                     l1871:
  2211                           
  2212                           ;C:\Program Files\Microchip\xc8\v2.45\pic\sources\c99\common\doprnt.c: 1830:    vfpfcnvr
      +                          t(fp, &cfmt, ap);
  2213   001C50  C010  F00C         	movff	vfprintf@fp,vfpfcnvrt@fp
  2214   001C54  C011  F00D         	movff	vfprintf@fp+1,vfpfcnvrt@fp+1
  2215   001C58  0E14               	movlw	low vfprintf@cfmt
  2216   001C5A  6E0E               	movwf	vfpfcnvrt@fmt^0,c
  2217   001C5C  C013  F00F         	movff	vfprintf@ap,vfpfcnvrt@ap
  2218   001C60  ECED  F00D         	call	_vfpfcnvrt	;wreg free
  2219   001C64                     l1873:
  2220                           
  2221                           ;C:\Program Files\Microchip\xc8\v2.45\pic\sources\c99\common\doprnt.c: 1826:     while (
      +                          *cfmt) {
  2222   001C64  C014  FFF6         	movff	vfprintf@cfmt,tblptrl
  2223   001C68                     	if	1	;There is more than 1 active tblptr byte
  2224   001C68  0E0F               	movlw	high __smallconst
  2225   001C6A  6EF7               	movwf	tblptrh,c
  2226   001C6C                     	endif
  2227   001C6C                     	if	0	;tblptru may be non-zero
  2228   001C6C                     	endif
  2229   001C6C                     	if	0	;tblptru may be non-zero
  2230   001C6C                     	endif
  2231   001C6C  0008               	tblrd		*
  2232   001C6E  50F5               	movf	tablat,w,c
  2233   001C70  0900               	iorlw	0
  2234   001C72  A4D8               	btfss	status,2,c
  2235   001C74  EF3E  F00E         	goto	u1291
  2236   001C78  EF40  F00E         	goto	u1290
  2237   001C7C                     u1291:
  2238   001C7C  EF28  F00E         	goto	l1871
  2239   001C80                     u1290:
  2240   001C80                     
  2241                           ;C:\Program Files\Microchip\xc8\v2.45\pic\sources\c99\common\doprnt.c: 1835:  return 0;
  2242   001C80  0E00               	movlw	0
  2243   001C82  6E11               	movwf	(?_vfprintf+1)^0,c
  2244   001C84  0E00               	movlw	0
  2245   001C86  6E10               	movwf	?_vfprintf^0,c
  2246   001C88  0012               	return		;funcret
  2247   001C8A                     __end_of_vfprintf:
  2248                           	callstack 0
  2249                           
  2250 ;; *************** function _vfpfcnvrt *****************
  2251 ;; Defined at:
  2252 ;;		line 1177 in file "C:\Program Files\Microchip\xc8\v2.45\pic\sources\c99\common\doprnt.c"
  2253 ;; Parameters:    Size  Location     Type
  2254 ;;  fp              2   11[COMRAM] PTR struct _IO_FILE
  2255 ;;		 -> NULL(0), 
  2256 ;;  fmt             1   13[COMRAM] PTR PTR unsigned char 
  2257 ;;		 -> vfprintf@cfmt(1), 
  2258 ;;  ap              1   14[COMRAM] PTR PTR void 
  2259 ;;		 -> printf@ap(1), 
  2260 ;; Auto vars:     Size  Location     Type
  2261 ;;  cp              3    0        PTR unsigned char 
  2262 ;;  done            1    0        _Bool 
  2263 ;;  c               1    0        unsigned char 
  2264 ;; Return value:  Size  Location     Type
  2265 ;;                  1    wreg      void 
  2266 ;; Registers used:
  2267 ;;		wreg, fsr1l, fsr1h, fsr2l, fsr2h, status,2, status,0, tblptrl, tblptrh, tblptru, cstack
  2268 ;; Tracked objects:
  2269 ;;		On entry : 0/0
  2270 ;;		On exit  : 0/0
  2271 ;;		Unchanged: 0/0
  2272 ;; Data sizes:     COMRAM   BANK0   BANK1   BANK2   BANK3   BANK4   BANK5   BANK6   BANK7   BANK8   BANK9  BANK10  BANK1
      +2  BANK13  BANK11  BANK14
  2273 ;;      Params:         4       0       0       0       0       0       0       0       0       0       0       0       
      +0       0       0       0
  2274 ;;      Locals:         0       0       0       0       0       0       0       0       0       0       0       0       
      +0       0       0       0
  2275 ;;      Temps:          0       0       0       0       0       0       0       0       0       0       0       0       
      +0       0       0       0
  2276 ;;      Totals:         4       0       0       0       0       0       0       0       0       0       0       0       
      +0       0       0       0
  2277 ;;Total ram usage:        4 bytes
  2278 ;; Hardware stack levels used: 1
  2279 ;; Hardware stack levels required when called: 3
  2280 ;; This function calls:
  2281 ;;		_fputc
  2282 ;; This function is called by:
  2283 ;;		_vfprintf
  2284 ;; This function uses a non-reentrant model
  2285 ;;
  2286                           
  2287                           	psect	text8
  2288   001BDA                     __ptext8:
  2289                           	callstack 0
  2290   001BDA                     _vfpfcnvrt:
  2291                           	callstack 25
  2292   001BDA                     
  2293                           ;C:\Program Files\Microchip\xc8\v2.45\pic\sources\c99\common\doprnt.c: 1177: vfpfcnvrt(F
      +                          ILE *fp, char *fmt[], va_list ap);C:\Program Files\Microchip\xc8\v2.45\pic\sources\c99\c
      +                          ommon\doprnt.c: 1178: {;C:\Program Files\Microchip\xc8\v2.45\pic\sources\c99\common\dopr
      +                          nt.c: 1179:     char c, *cp;;C:\Program Files\Microchip\xc8\v2.45\pic\sources\c99\common
      +                          \doprnt.c: 1180:     _Bool done;;C:\Program Files\Microchip\xc8\v2.45\pic\sources\c99\co
      +                          mmon\doprnt.c: 1201:     if ((*fmt)[0] == '%') {
  2294   001BDA  500E               	movf	vfpfcnvrt@fmt^0,w,c
  2295   001BDC  6ED9               	movwf	fsr2l,c
  2296   001BDE  6ADA               	clrf	fsr2h,c
  2297   001BE0  CFDF FFF6          	movff	indf2,tblptrl
  2298   001BE4                     	if	1	;There is more than 1 active tblptr byte
  2299   001BE4  0E0F               	movlw	high __smallconst
  2300   001BE6  6EF7               	movwf	tblptrh,c
  2301   001BE8                     	endif
  2302   001BE8                     	if	0	;tblptru may be non-zero
  2303   001BE8                     	endif
  2304   001BE8                     	if	0	;tblptru may be non-zero
  2305   001BE8                     	endif
  2306   001BE8  0008               	tblrd		*
  2307   001BEA  50F5               	movf	tablat,w,c
  2308   001BEC  0A25               	xorlw	37
  2309   001BEE  A4D8               	btfss	status,2,c
  2310   001BF0  EFFC  F00D         	goto	u741
  2311   001BF4  EFFE  F00D         	goto	u740
  2312   001BF8                     u741:
  2313   001BF8  EF10  F00E         	goto	l1519
  2314   001BFC                     u740:
  2315   001BFC                     
  2316                           ;C:\Program Files\Microchip\xc8\v2.45\pic\sources\c99\common\doprnt.c: 1202:         ++*
      +                          fmt;
  2317   001BFC  500E               	movf	vfpfcnvrt@fmt^0,w,c
  2318   001BFE  6ED9               	movwf	fsr2l,c
  2319   001C00  6ADA               	clrf	fsr2h,c
  2320   001C02  2ADF               	incf	indf2,f,c
  2321   001C04                     
  2322                           ;C:\Program Files\Microchip\xc8\v2.45\pic\sources\c99\common\doprnt.c: 1204:         fla
      +                          gs = width = 0;
  2323   001C04  0E00               	movlw	0
  2324   001C06  6E4C               	movwf	(_width+1)^0,c
  2325   001C08  0E00               	movlw	0
  2326   001C0A  6E4B               	movwf	_width^0,c
  2327   001C0C  C04B  F04F         	movff	_width,_flags
  2328   001C10                     
  2329                           ;C:\Program Files\Microchip\xc8\v2.45\pic\sources\c99\common\doprnt.c: 1205:         pre
      +                          c = -1;
  2330   001C10  684D               	setf	_prec^0,c
  2331   001C12  684E               	setf	(_prec+1)^0,c
  2332   001C14                     l1515:
  2333                           
  2334                           ;C:\Program Files\Microchip\xc8\v2.45\pic\sources\c99\common\doprnt.c: 1806:         ++*
      +                          fmt;
  2335   001C14  500E               	movf	vfpfcnvrt@fmt^0,w,c
  2336   001C16  6ED9               	movwf	fsr2l,c
  2337   001C18  6ADA               	clrf	fsr2h,c
  2338   001C1A  2ADF               	incf	indf2,f,c
  2339   001C1C  EF23  F00E         	goto	l923
  2340   001C20                     l1519:
  2341                           
  2342                           ;C:\Program Files\Microchip\xc8\v2.45\pic\sources\c99\common\doprnt.c: 1811:     fputc((
      +                          int)(*fmt)[0], fp);
  2343   001C20  500E               	movf	vfpfcnvrt@fmt^0,w,c
  2344   001C22  6ED9               	movwf	fsr2l,c
  2345   001C24  6ADA               	clrf	fsr2h,c
  2346   001C26  CFDF FFF6          	movff	indf2,tblptrl
  2347   001C2A                     	if	1	;There is more than 1 active tblptr byte
  2348   001C2A  0E0F               	movlw	high __smallconst
  2349   001C2C  6EF7               	movwf	tblptrh,c
  2350   001C2E                     	endif
  2351   001C2E                     	if	0	;tblptru may be non-zero
  2352   001C2E                     	endif
  2353   001C2E                     	if	0	;tblptru may be non-zero
  2354   001C2E                     	endif
  2355   001C2E  0008               	tblrd		*
  2356   001C30  50F5               	movf	tablat,w,c
  2357   001C32  6E03               	movwf	fputc@c^0,c
  2358   001C34  6A04               	clrf	(fputc@c+1)^0,c
  2359   001C36  C00C  F005         	movff	vfpfcnvrt@fp,fputc@fp
  2360   001C3A  C00D  F006         	movff	vfpfcnvrt@fp+1,fputc@fp+1
  2361   001C3E  EC2B  F00D         	call	_fputc	;wreg free
  2362   001C42  EF0A  F00E         	goto	l1515
  2363   001C46                     l923:
  2364   001C46  0012               	return		;funcret
  2365   001C48                     __end_of_vfpfcnvrt:
  2366                           	callstack 0
  2367                           
  2368 ;; *************** function _fputc *****************
  2369 ;; Defined at:
  2370 ;;		line 8 in file "C:\Program Files\Microchip\xc8\v2.45\pic\sources\c99\common\nf_fputc.c"
  2371 ;; Parameters:    Size  Location     Type
  2372 ;;  c               2    2[COMRAM] int 
  2373 ;;  fp              2    4[COMRAM] PTR struct _IO_FILE
  2374 ;;		 -> NULL(0), 
  2375 ;; Auto vars:     Size  Location     Type
  2376 ;;		None
  2377 ;; Return value:  Size  Location     Type
  2378 ;;                  2    2[COMRAM] int 
  2379 ;; Registers used:
  2380 ;;		wreg, fsr1l, fsr1h, fsr2l, fsr2h, status,2, status,0, cstack
  2381 ;; Tracked objects:
  2382 ;;		On entry : 0/0
  2383 ;;		On exit  : 0/0
  2384 ;;		Unchanged: 0/0
  2385 ;; Data sizes:     COMRAM   BANK0   BANK1   BANK2   BANK3   BANK4   BANK5   BANK6   BANK7   BANK8   BANK9  BANK10  BANK1
      +2  BANK13  BANK11  BANK14
  2386 ;;      Params:         4       0       0       0       0       0       0       0       0       0       0       0       
      +0       0       0       0
  2387 ;;      Locals:         0       0       0       0       0       0       0       0       0       0       0       0       
      +0       0       0       0
  2388 ;;      Temps:          5       0       0       0       0       0       0       0       0       0       0       0       
      +0       0       0       0
  2389 ;;      Totals:         9       0       0       0       0       0       0       0       0       0       0       0       
      +0       0       0       0
  2390 ;;Total ram usage:        9 bytes
  2391 ;; Hardware stack levels used: 1
  2392 ;; Hardware stack levels required when called: 2
  2393 ;; This function calls:
  2394 ;;		_putch
  2395 ;; This function is called by:
  2396 ;;		_vfpfcnvrt
  2397 ;; This function uses a non-reentrant model
  2398 ;;
  2399                           
  2400                           	psect	text9
  2401   001A56                     __ptext9:
  2402                           	callstack 0
  2403   001A56                     _fputc:
  2404                           	callstack 25
  2405   001A56  5005               	movf	fputc@fp^0,w,c
  2406   001A58  1006               	iorwf	(fputc@fp+1)^0,w,c
  2407   001A5A  B4D8               	btfsc	status,2,c
  2408   001A5C  EF32  F00D         	goto	u701
  2409   001A60  EF34  F00D         	goto	u700
  2410   001A64                     u701:
  2411   001A64  EF3D  F00D         	goto	l1491
  2412   001A68                     u700:
  2413   001A68  5005               	movf	fputc@fp^0,w,c
  2414   001A6A  1006               	iorwf	(fputc@fp+1)^0,w,c
  2415   001A6C  A4D8               	btfss	status,2,c
  2416   001A6E  EF3B  F00D         	goto	u711
  2417   001A72  EF3D  F00D         	goto	u710
  2418   001A76                     u711:
  2419   001A76  EF42  F00D         	goto	l1493
  2420   001A7A                     u710:
  2421   001A7A                     l1491:
  2422   001A7A  5003               	movf	fputc@c^0,w,c
  2423   001A7C  ECF3  F00E         	call	_putch
  2424   001A80  EF8F  F00D         	goto	l941
  2425   001A84                     l1493:
  2426   001A84  EE20 F00A          	lfsr	2,10
  2427   001A88  5005               	movf	fputc@fp^0,w,c
  2428   001A8A  26D9               	addwf	fsr2l,f,c
  2429   001A8C  5006               	movf	(fputc@fp+1)^0,w,c
  2430   001A8E  22DA               	addwfc	fsr2h,f,c
  2431   001A90  50DE               	movf	postinc2,w,c
  2432   001A92  10DE               	iorwf	postinc2,w,c
  2433   001A94  B4D8               	btfsc	status,2,c
  2434   001A96  EF4F  F00D         	goto	u721
  2435   001A9A  EF51  F00D         	goto	u720
  2436   001A9E                     u721:
  2437   001A9E  EF6C  F00D         	goto	l1497
  2438   001AA2                     u720:
  2439   001AA2  EE20 F00A          	lfsr	2,10
  2440   001AA6  5005               	movf	fputc@fp^0,w,c
  2441   001AA8  26D9               	addwf	fsr2l,f,c
  2442   001AAA  5006               	movf	(fputc@fp+1)^0,w,c
  2443   001AAC  22DA               	addwfc	fsr2h,f,c
  2444   001AAE  EE10 F003          	lfsr	1,3
  2445   001AB2  5005               	movf	fputc@fp^0,w,c
  2446   001AB4  26E1               	addwf	fsr1l,f,c
  2447   001AB6  5006               	movf	(fputc@fp+1)^0,w,c
  2448   001AB8  22E2               	addwfc	fsr1h,f,c
  2449   001ABA  50DE               	movf	postinc2,w,c
  2450   001ABC  5CE6               	subwf	postinc1,w,c
  2451   001ABE  50E6               	movf	postinc1,w,c
  2452   001AC0  0A80               	xorlw	128
  2453   001AC2  6E0B               	movwf	(??_fputc+4)^0,c
  2454   001AC4  50DE               	movf	postinc2,w,c
  2455   001AC6  0A80               	xorlw	128
  2456   001AC8  580B               	subwfb	(??_fputc+4)^0,w,c
  2457   001ACA  B0D8               	btfsc	status,0,c
  2458   001ACC  EF6A  F00D         	goto	u731
  2459   001AD0  EF6C  F00D         	goto	u730
  2460   001AD4                     u731:
  2461   001AD4  EF8F  F00D         	goto	l941
  2462   001AD8                     u730:
  2463   001AD8                     l1497:
  2464   001AD8  EE20 F003          	lfsr	2,3
  2465   001ADC  5005               	movf	fputc@fp^0,w,c
  2466   001ADE  26D9               	addwf	fsr2l,f,c
  2467   001AE0  5006               	movf	(fputc@fp+1)^0,w,c
  2468   001AE2  22DA               	addwfc	fsr2h,f,c
  2469   001AE4  CFDE F007          	movff	postinc2,??_fputc
  2470   001AE8  CFDD F008          	movff	postdec2,??_fputc+1
  2471   001AEC  C005  FFD9         	movff	fputc@fp,fsr2l
  2472   001AF0  C006  FFDA         	movff	fputc@fp+1,fsr2h
  2473   001AF4  CFDE F009          	movff	postinc2,??_fputc+2
  2474   001AF8  CFDD F00A          	movff	postdec2,??_fputc+3
  2475   001AFC  5007               	movf	??_fputc^0,w,c
  2476   001AFE  2409               	addwf	(??_fputc+2)^0,w,c
  2477   001B00  6ED9               	movwf	fsr2l,c
  2478   001B02  5008               	movf	(??_fputc+1)^0,w,c
  2479   001B04  200A               	addwfc	(??_fputc+3)^0,w,c
  2480   001B06  6EDA               	movwf	fsr2h,c
  2481   001B08  C003  FFDF         	movff	fputc@c,indf2
  2482   001B0C  EE20 F003          	lfsr	2,3
  2483   001B10  5005               	movf	fputc@fp^0,w,c
  2484   001B12  26D9               	addwf	fsr2l,f,c
  2485   001B14  5006               	movf	(fputc@fp+1)^0,w,c
  2486   001B16  22DA               	addwfc	fsr2h,f,c
  2487   001B18  2ADE               	incf	postinc2,f,c
  2488   001B1A  0E00               	movlw	0
  2489   001B1C  22DD               	addwfc	postdec2,f,c
  2490   001B1E                     l941:
  2491   001B1E  0012               	return		;funcret
  2492   001B20                     __end_of_fputc:
  2493                           	callstack 0
  2494                           
  2495 ;; *************** function _putch *****************
  2496 ;; Defined at:
  2497 ;;		line 143 in file "mcc_generated_files/eusart1.c"
  2498 ;; Parameters:    Size  Location     Type
  2499 ;;  txData          1    wreg     unsigned char 
  2500 ;; Auto vars:     Size  Location     Type
  2501 ;;  txData          1    1[COMRAM] unsigned char 
  2502 ;; Return value:  Size  Location     Type
  2503 ;;                  1    wreg      void 
  2504 ;; Registers used:
  2505 ;;		wreg, status,2, cstack
  2506 ;; Tracked objects:
  2507 ;;		On entry : 0/0
  2508 ;;		On exit  : 0/0
  2509 ;;		Unchanged: 0/0
  2510 ;; Data sizes:     COMRAM   BANK0   BANK1   BANK2   BANK3   BANK4   BANK5   BANK6   BANK7   BANK8   BANK9  BANK10  BANK1
      +2  BANK13  BANK11  BANK14
  2511 ;;      Params:         0       0       0       0       0       0       0       0       0       0       0       0       
      +0       0       0       0
  2512 ;;      Locals:         1       0       0       0       0       0       0       0       0       0       0       0       
      +0       0       0       0
  2513 ;;      Temps:          0       0       0       0       0       0       0       0       0       0       0       0       
      +0       0       0       0
  2514 ;;      Totals:         1       0       0       0       0       0       0       0       0       0       0       0       
      +0       0       0       0
  2515 ;;Total ram usage:        1 bytes
  2516 ;; Hardware stack levels used: 1
  2517 ;; Hardware stack levels required when called: 1
  2518 ;; This function calls:
  2519 ;;		_EUSART1_Write
  2520 ;; This function is called by:
  2521 ;;		_fputc
  2522 ;; This function uses a non-reentrant model
  2523 ;;
  2524                           
  2525                           	psect	text10
  2526   001DE6                     __ptext10:
  2527                           	callstack 0
  2528   001DE6                     _putch:
  2529                           	callstack 25
  2530                           
  2531                           ;incstack = 0
  2532                           ;putch@txData stored from wreg
  2533   001DE6  6E02               	movwf	putch@txData^0,c
  2534   001DE8                     
  2535                           ;mcc_generated_files/eusart1.c: 143: void putch(char txData);mcc_generated_files/eusart1
      +                          .c: 144: {;mcc_generated_files/eusart1.c: 145:     EUSART1_Write(txData);
  2536   001DE8  5002               	movf	putch@txData^0,w,c
  2537   001DEA  ECC3  F00E         	call	_EUSART1_Write
  2538   001DEE  0012               	return		;funcret
  2539   001DF0                     __end_of_putch:
  2540                           	callstack 0
  2541                           
  2542 ;; *************** function _EUSART1_Write *****************
  2543 ;; Defined at:
  2544 ;;		line 132 in file "mcc_generated_files/eusart1.c"
  2545 ;; Parameters:    Size  Location     Type
  2546 ;;  txData          1    wreg     unsigned char 
  2547 ;; Auto vars:     Size  Location     Type
  2548 ;;  txData          1    0[COMRAM] unsigned char 
  2549 ;; Return value:  Size  Location     Type
  2550 ;;                  1    wreg      void 
  2551 ;; Registers used:
  2552 ;;		wreg
  2553 ;; Tracked objects:
  2554 ;;		On entry : 0/0
  2555 ;;		On exit  : 0/0
  2556 ;;		Unchanged: 0/0
  2557 ;; Data sizes:     COMRAM   BANK0   BANK1   BANK2   BANK3   BANK4   BANK5   BANK6   BANK7   BANK8   BANK9  BANK10  BANK1
      +2  BANK13  BANK11  BANK14
  2558 ;;      Params:         0       0       0       0       0       0       0       0       0       0       0       0       
      +0       0       0       0
  2559 ;;      Locals:         1       0       0       0       0       0       0       0       0       0       0       0       
      +0       0       0       0
  2560 ;;      Temps:          0       0       0       0       0       0       0       0       0       0       0       0       
      +0       0       0       0
  2561 ;;      Totals:         1       0       0       0       0       0       0       0       0       0       0       0       
      +0       0       0       0
  2562 ;;Total ram usage:        1 bytes
  2563 ;; Hardware stack levels used: 1
  2564 ;; This function calls:
  2565 ;;		Nothing
  2566 ;; This function is called by:
  2567 ;;		_putch
  2568 ;;		_main
  2569 ;; This function uses a non-reentrant model
  2570 ;;
  2571                           
  2572                           	psect	text11
  2573   001D86                     __ptext11:
  2574                           	callstack 0
  2575   001D86                     _EUSART1_Write:
  2576                           	callstack 25
  2577                           
  2578                           ;incstack = 0
  2579                           ;EUSART1_Write@txData stored from wreg
  2580   001D86  6E01               	movwf	EUSART1_Write@txData^0,c
  2581   001D88                     l81:
  2582                           
  2583                           ;mcc_generated_files/eusart1.c: 134:     while(0 == PIR1bits.TX1IF)
  2584   001D88  A89E               	btfss	158,4,c	;volatile
  2585   001D8A  EFC9  F00E         	goto	u11
  2586   001D8E  EFCB  F00E         	goto	u10
  2587   001D92                     u11:
  2588   001D92  EFC4  F00E         	goto	l81
  2589   001D96                     u10:
  2590   001D96                     
  2591                           ;mcc_generated_files/eusart1.c: 138:     TXREG1 = txData;
  2592   001D96  C001  FFAD         	movff	EUSART1_Write@txData,4013	;volatile
  2593   001D9A  0012               	return		;funcret
  2594   001D9C                     __end_of_EUSART1_Write:
  2595                           	callstack 0
  2596                           
  2597 ;; *************** function _SYSTEM_Initialize *****************
  2598 ;; Defined at:
  2599 ;;		line 50 in file "mcc_generated_files/mcc.c"
  2600 ;; Parameters:    Size  Location     Type
  2601 ;;		None
  2602 ;; Auto vars:     Size  Location     Type
  2603 ;;		None
  2604 ;; Return value:  Size  Location     Type
  2605 ;;                  1    wreg      void 
  2606 ;; Registers used:
  2607 ;;		wreg, status,2, status,0, cstack
  2608 ;; Tracked objects:
  2609 ;;		On entry : 0/0
  2610 ;;		On exit  : 0/0
  2611 ;;		Unchanged: 0/0
  2612 ;; Data sizes:     COMRAM   BANK0   BANK1   BANK2   BANK3   BANK4   BANK5   BANK6   BANK7   BANK8   BANK9  BANK10  BANK1
      +2  BANK13  BANK11  BANK14
  2613 ;;      Params:         0       0       0       0       0       0       0       0       0       0       0       0       
      +0       0       0       0
  2614 ;;      Locals:         0       0       0       0       0       0       0       0       0       0       0       0       
      +0       0       0       0
  2615 ;;      Temps:          0       0       0       0       0       0       0       0       0       0       0       0       
      +0       0       0       0
  2616 ;;      Totals:         0       0       0       0       0       0       0       0       0       0       0       0       
      +0       0       0       0
  2617 ;;Total ram usage:        0 bytes
  2618 ;; Hardware stack levels used: 1
  2619 ;; Hardware stack levels required when called: 2
  2620 ;; This function calls:
  2621 ;;		_EUSART1_Initialize
  2622 ;;		_OSCILLATOR_Initialize
  2623 ;;		_PIN_MANAGER_Initialize
  2624 ;;		_PWM2_Initialize
  2625 ;;		_TMR2_Initialize
  2626 ;; This function is called by:
  2627 ;;		_main
  2628 ;; This function uses a non-reentrant model
  2629 ;;
  2630                           
  2631                           	psect	text12
  2632   001D9C                     __ptext12:
  2633                           	callstack 0
  2634   001D9C                     _SYSTEM_Initialize:
  2635                           	callstack 28
  2636   001D9C                     
  2637                           ;mcc_generated_files/mcc.c: 53:     PIN_MANAGER_Initialize();
  2638   001D9C  EC7D  F00E         	call	_PIN_MANAGER_Initialize	;wreg free
  2639                           
  2640                           ;mcc_generated_files/mcc.c: 54:     OSCILLATOR_Initialize();
  2641   001DA0  ECE2  F00E         	call	_OSCILLATOR_Initialize	;wreg free
  2642                           
  2643                           ;mcc_generated_files/mcc.c: 55:     TMR2_Initialize();
  2644   001DA4  ECEB  F00E         	call	_TMR2_Initialize	;wreg free
  2645                           
  2646                           ;mcc_generated_files/mcc.c: 56:     PWM2_Initialize();
  2647   001DA8  ECD9  F00E         	call	_PWM2_Initialize	;wreg free
  2648   001DAC                     
  2649                           ;mcc_generated_files/mcc.c: 57:     EUSART1_Initialize();
  2650   001DAC  EC45  F00E         	call	_EUSART1_Initialize	;wreg free
  2651   001DB0  0012               	return		;funcret
  2652   001DB2                     __end_of_SYSTEM_Initialize:
  2653                           	callstack 0
  2654                           
  2655 ;; *************** function _TMR2_Initialize *****************
  2656 ;; Defined at:
  2657 ;;		line 62 in file "mcc_generated_files/tmr2.c"
  2658 ;; Parameters:    Size  Location     Type
  2659 ;;		None
  2660 ;; Auto vars:     Size  Location     Type
  2661 ;;		None
  2662 ;; Return value:  Size  Location     Type
  2663 ;;                  1    wreg      void 
  2664 ;; Registers used:
  2665 ;;		wreg, status,2
  2666 ;; Tracked objects:
  2667 ;;		On entry : 0/0
  2668 ;;		On exit  : 0/0
  2669 ;;		Unchanged: 0/0
  2670 ;; Data sizes:     COMRAM   BANK0   BANK1   BANK2   BANK3   BANK4   BANK5   BANK6   BANK7   BANK8   BANK9  BANK10  BANK1
      +2  BANK13  BANK11  BANK14
  2671 ;;      Params:         0       0       0       0       0       0       0       0       0       0       0       0       
      +0       0       0       0
  2672 ;;      Locals:         0       0       0       0       0       0       0       0       0       0       0       0       
      +0       0       0       0
  2673 ;;      Temps:          0       0       0       0       0       0       0       0       0       0       0       0       
      +0       0       0       0
  2674 ;;      Totals:         0       0       0       0       0       0       0       0       0       0       0       0       
      +0       0       0       0
  2675 ;;Total ram usage:        0 bytes
  2676 ;; Hardware stack levels used: 1
  2677 ;; This function calls:
  2678 ;;		Nothing
  2679 ;; This function is called by:
  2680 ;;		_SYSTEM_Initialize
  2681 ;; This function uses a non-reentrant model
  2682 ;;
  2683                           
  2684                           	psect	text13
  2685   001DD6                     __ptext13:
  2686                           	callstack 0
  2687   001DD6                     _TMR2_Initialize:
  2688                           	callstack 29
  2689   001DD6                     
  2690                           ;mcc_generated_files/tmr2.c: 67:     PR2 = 0x9B;
  2691   001DD6  0E9B               	movlw	155
  2692   001DD8  6ECB               	movwf	203,c	;volatile
  2693                           
  2694                           ;mcc_generated_files/tmr2.c: 70:     TMR2 = 0x00;
  2695   001DDA  0E00               	movlw	0
  2696   001DDC  6ECC               	movwf	204,c	;volatile
  2697   001DDE                     
  2698                           ;mcc_generated_files/tmr2.c: 73:     PIR1bits.TMR2IF = 0;
  2699   001DDE  929E               	bcf	158,1,c	;volatile
  2700                           
  2701                           ;mcc_generated_files/tmr2.c: 76:     T2CON = 0x06;
  2702   001DE0  0E06               	movlw	6
  2703   001DE2  6ECA               	movwf	202,c	;volatile
  2704   001DE4  0012               	return		;funcret
  2705   001DE6                     __end_of_TMR2_Initialize:
  2706                           	callstack 0
  2707                           
  2708 ;; *************** function _PWM2_Initialize *****************
  2709 ;; Defined at:
  2710 ;;		line 64 in file "mcc_generated_files/pwm2.c"
  2711 ;; Parameters:    Size  Location     Type
  2712 ;;		None
  2713 ;; Auto vars:     Size  Location     Type
  2714 ;;		None
  2715 ;; Return value:  Size  Location     Type
  2716 ;;                  1    wreg      void 
  2717 ;; Registers used:
  2718 ;;		wreg, status,2
  2719 ;; Tracked objects:
  2720 ;;		On entry : 0/0
  2721 ;;		On exit  : 0/0
  2722 ;;		Unchanged: 0/0
  2723 ;; Data sizes:     COMRAM   BANK0   BANK1   BANK2   BANK3   BANK4   BANK5   BANK6   BANK7   BANK8   BANK9  BANK10  BANK1
      +2  BANK13  BANK11  BANK14
  2724 ;;      Params:         0       0       0       0       0       0       0       0       0       0       0       0       
      +0       0       0       0
  2725 ;;      Locals:         0       0       0       0       0       0       0       0       0       0       0       0       
      +0       0       0       0
  2726 ;;      Temps:          0       0       0       0       0       0       0       0       0       0       0       0       
      +0       0       0       0
  2727 ;;      Totals:         0       0       0       0       0       0       0       0       0       0       0       0       
      +0       0       0       0
  2728 ;;Total ram usage:        0 bytes
  2729 ;; Hardware stack levels used: 1
  2730 ;; This function calls:
  2731 ;;		Nothing
  2732 ;; This function is called by:
  2733 ;;		_SYSTEM_Initialize
  2734 ;; This function uses a non-reentrant model
  2735 ;;
  2736                           
  2737                           	psect	text14
  2738   001DB2                     __ptext14:
  2739                           	callstack 0
  2740   001DB2                     _PWM2_Initialize:
  2741                           	callstack 29
  2742   001DB2                     
  2743                           ;mcc_generated_files/pwm2.c: 69:  CCP2CON = 0x0C;
  2744   001DB2  0E0C               	movlw	12
  2745   001DB4  010F               	movlb	15	; () banked
  2746   001DB6  6F50               	movwf	80,b	;volatile
  2747                           
  2748                           ;mcc_generated_files/pwm2.c: 72:  CCPR2L = 0x00;
  2749   001DB8  0E00               	movlw	0
  2750   001DBA  6F51               	movwf	81,b	;volatile
  2751                           
  2752                           ;mcc_generated_files/pwm2.c: 75:  CCPR2H = 0x00;
  2753   001DBC  0E00               	movlw	0
  2754   001DBE  6F52               	movwf	82,b	;volatile
  2755   001DC0                     
  2756                           ; BSR set to: 15
  2757                           ;mcc_generated_files/pwm2.c: 78:  CCPTMRSbits.C2TSEL = 0x0;
  2758   001DC0  9299               	bcf	153,1,c	;volatile
  2759   001DC2                     
  2760                           ; BSR set to: 15
  2761   001DC2  0012               	return		;funcret
  2762   001DC4                     __end_of_PWM2_Initialize:
  2763                           	callstack 0
  2764                           
  2765 ;; *************** function _PIN_MANAGER_Initialize *****************
  2766 ;; Defined at:
  2767 ;;		line 55 in file "mcc_generated_files/pin_manager.c"
  2768 ;; Parameters:    Size  Location     Type
  2769 ;;		None
  2770 ;; Auto vars:     Size  Location     Type
  2771 ;;		None
  2772 ;; Return value:  Size  Location     Type
  2773 ;;                  1    wreg      void 
  2774 ;; Registers used:
  2775 ;;		wreg, status,2
  2776 ;; Tracked objects:
  2777 ;;		On entry : 0/0
  2778 ;;		On exit  : 0/0
  2779 ;;		Unchanged: 0/0
  2780 ;; Data sizes:     COMRAM   BANK0   BANK1   BANK2   BANK3   BANK4   BANK5   BANK6   BANK7   BANK8   BANK9  BANK10  BANK1
      +2  BANK13  BANK11  BANK14
  2781 ;;      Params:         0       0       0       0       0       0       0       0       0       0       0       0       
      +0       0       0       0
  2782 ;;      Locals:         0       0       0       0       0       0       0       0       0       0       0       0       
      +0       0       0       0
  2783 ;;      Temps:          0       0       0       0       0       0       0       0       0       0       0       0       
      +0       0       0       0
  2784 ;;      Totals:         0       0       0       0       0       0       0       0       0       0       0       0       
      +0       0       0       0
  2785 ;;Total ram usage:        0 bytes
  2786 ;; Hardware stack levels used: 1
  2787 ;; This function calls:
  2788 ;;		Nothing
  2789 ;; This function is called by:
  2790 ;;		_SYSTEM_Initialize
  2791 ;; This function uses a non-reentrant model
  2792 ;;
  2793                           
  2794                           	psect	text15
  2795   001CFA                     __ptext15:
  2796                           	callstack 0
  2797   001CFA                     _PIN_MANAGER_Initialize:
  2798                           	callstack 29
  2799   001CFA                     
  2800                           ;mcc_generated_files/pin_manager.c: 60:     LATA = 0x00;
  2801   001CFA  0E00               	movlw	0
  2802   001CFC  6E89               	movwf	137,c	;volatile
  2803                           
  2804                           ;mcc_generated_files/pin_manager.c: 61:     LATB = 0x00;
  2805   001CFE  0E00               	movlw	0
  2806   001D00  6E8A               	movwf	138,c	;volatile
  2807                           
  2808                           ;mcc_generated_files/pin_manager.c: 62:     LATC = 0x00;
  2809   001D02  0E00               	movlw	0
  2810   001D04  6E8B               	movwf	139,c	;volatile
  2811                           
  2812                           ;mcc_generated_files/pin_manager.c: 67:     TRISA = 0xEF;
  2813   001D06  0EEF               	movlw	239
  2814   001D08  6E92               	movwf	146,c	;volatile
  2815   001D0A                     
  2816                           ;mcc_generated_files/pin_manager.c: 68:     TRISB = 0xFF;
  2817   001D0A  6893               	setf	147,c	;volatile
  2818                           
  2819                           ;mcc_generated_files/pin_manager.c: 69:     TRISC = 0xBB;
  2820   001D0C  0EBB               	movlw	187
  2821   001D0E  6E94               	movwf	148,c	;volatile
  2822                           
  2823                           ;mcc_generated_files/pin_manager.c: 74:     ANCON0 = 0x1F;
  2824   001D10  0E1F               	movlw	31
  2825   001D12  010F               	movlb	15	; () banked
  2826   001D14  6F5D               	movwf	93,b	;volatile
  2827                           
  2828                           ;mcc_generated_files/pin_manager.c: 75:     ANCON1 = 0x07;
  2829   001D16  0E07               	movlw	7
  2830   001D18  6F5C               	movwf	92,b	;volatile
  2831                           
  2832                           ;mcc_generated_files/pin_manager.c: 80:     WPUB = 0x00;
  2833   001D1A  0E00               	movlw	0
  2834   001D1C  6F5B               	movwf	91,b	;volatile
  2835   001D1E                     
  2836                           ; BSR set to: 15
  2837                           ;mcc_generated_files/pin_manager.c: 81:     INTCON2bits.nRBPU = 1;
  2838   001D1E  8EF1               	bsf	241,7,c	;volatile
  2839   001D20                     
  2840                           ; BSR set to: 15
  2841   001D20  0012               	return		;funcret
  2842   001D22                     __end_of_PIN_MANAGER_Initialize:
  2843                           	callstack 0
  2844                           
  2845 ;; *************** function _OSCILLATOR_Initialize *****************
  2846 ;; Defined at:
  2847 ;;		line 60 in file "mcc_generated_files/mcc.c"
  2848 ;; Parameters:    Size  Location     Type
  2849 ;;		None
  2850 ;; Auto vars:     Size  Location     Type
  2851 ;;		None
  2852 ;; Return value:  Size  Location     Type
  2853 ;;                  1    wreg      void 
  2854 ;; Registers used:
  2855 ;;		wreg, status,2
  2856 ;; Tracked objects:
  2857 ;;		On entry : 0/0
  2858 ;;		On exit  : 0/0
  2859 ;;		Unchanged: 0/0
  2860 ;; Data sizes:     COMRAM   BANK0   BANK1   BANK2   BANK3   BANK4   BANK5   BANK6   BANK7   BANK8   BANK9  BANK10  BANK1
      +2  BANK13  BANK11  BANK14
  2861 ;;      Params:         0       0       0       0       0       0       0       0       0       0       0       0       
      +0       0       0       0
  2862 ;;      Locals:         0       0       0       0       0       0       0       0       0       0       0       0       
      +0       0       0       0
  2863 ;;      Temps:          0       0       0       0       0       0       0       0       0       0       0       0       
      +0       0       0       0
  2864 ;;      Totals:         0       0       0       0       0       0       0       0       0       0       0       0       
      +0       0       0       0
  2865 ;;Total ram usage:        0 bytes
  2866 ;; Hardware stack levels used: 1
  2867 ;; This function calls:
  2868 ;;		Nothing
  2869 ;; This function is called by:
  2870 ;;		_SYSTEM_Initialize
  2871 ;; This function uses a non-reentrant model
  2872 ;;
  2873                           
  2874                           	psect	text16
  2875   001DC4                     __ptext16:
  2876                           	callstack 0
  2877   001DC4                     _OSCILLATOR_Initialize:
  2878                           	callstack 29
  2879   001DC4                     
  2880                           ;mcc_generated_files/mcc.c: 63:     OSCCON = 0x20;
  2881   001DC4  0E20               	movlw	32
  2882   001DC6  6ED3               	movwf	211,c	;volatile
  2883                           
  2884                           ;mcc_generated_files/mcc.c: 65:     OSCCON2 = 0x00;
  2885   001DC8  0E00               	movlw	0
  2886   001DCA  6ED2               	movwf	210,c	;volatile
  2887                           
  2888                           ;mcc_generated_files/mcc.c: 67:     OSCTUNE = 0x00;
  2889   001DCC  0E00               	movlw	0
  2890   001DCE  6E9B               	movwf	155,c	;volatile
  2891                           
  2892                           ;mcc_generated_files/mcc.c: 69:     REFOCON = 0x00;
  2893   001DD0  0E00               	movlw	0
  2894   001DD2  6E9A               	movwf	154,c	;volatile
  2895   001DD4  0012               	return		;funcret
  2896   001DD6                     __end_of_OSCILLATOR_Initialize:
  2897                           	callstack 0
  2898                           
  2899 ;; *************** function _EUSART1_Initialize *****************
  2900 ;; Defined at:
  2901 ;;		line 66 in file "mcc_generated_files/eusart1.c"
  2902 ;; Parameters:    Size  Location     Type
  2903 ;;		None
  2904 ;; Auto vars:     Size  Location     Type
  2905 ;;		None
  2906 ;; Return value:  Size  Location     Type
  2907 ;;                  1    wreg      void 
  2908 ;; Registers used:
  2909 ;;		wreg, status,2, status,0, cstack
  2910 ;; Tracked objects:
  2911 ;;		On entry : 0/0
  2912 ;;		On exit  : 0/0
  2913 ;;		Unchanged: 0/0
  2914 ;; Data sizes:     COMRAM   BANK0   BANK1   BANK2   BANK3   BANK4   BANK5   BANK6   BANK7   BANK8   BANK9  BANK10  BANK1
      +2  BANK13  BANK11  BANK14
  2915 ;;      Params:         0       0       0       0       0       0       0       0       0       0       0       0       
      +0       0       0       0
  2916 ;;      Locals:         0       0       0       0       0       0       0       0       0       0       0       0       
      +0       0       0       0
  2917 ;;      Temps:          0       0       0       0       0       0       0       0       0       0       0       0       
      +0       0       0       0
  2918 ;;      Totals:         0       0       0       0       0       0       0       0       0       0       0       0       
      +0       0       0       0
  2919 ;;Total ram usage:        0 bytes
  2920 ;; Hardware stack levels used: 1
  2921 ;; Hardware stack levels required when called: 1
  2922 ;; This function calls:
  2923 ;;		_EUSART1_SetErrorHandler
  2924 ;;		_EUSART1_SetFramingErrorHandler
  2925 ;;		_EUSART1_SetOverrunErrorHandler
  2926 ;; This function is called by:
  2927 ;;		_SYSTEM_Initialize
  2928 ;; This function uses a non-reentrant model
  2929 ;;
  2930                           
  2931                           	psect	text17
  2932   001C8A                     __ptext17:
  2933                           	callstack 0
  2934   001C8A                     _EUSART1_Initialize:
  2935                           	callstack 28
  2936   001C8A                     
  2937                           ;mcc_generated_files/eusart1.c: 71:     BAUDCON1 = 0x08;
  2938   001C8A  0E08               	movlw	8
  2939   001C8C  6EA7               	movwf	167,c	;volatile
  2940                           
  2941                           ;mcc_generated_files/eusart1.c: 74:     RCSTA1 = 0x90;
  2942   001C8E  0E90               	movlw	144
  2943   001C90  6EAB               	movwf	171,c	;volatile
  2944                           
  2945                           ;mcc_generated_files/eusart1.c: 77:     TXSTA1 = 0x24;
  2946   001C92  0E24               	movlw	36
  2947   001C94  6EAC               	movwf	172,c	;volatile
  2948                           
  2949                           ;mcc_generated_files/eusart1.c: 80:     SPBRG1 = 0x0C;
  2950   001C96  0E0C               	movlw	12
  2951   001C98  6EAF               	movwf	175,c	;volatile
  2952                           
  2953                           ;mcc_generated_files/eusart1.c: 83:     SPBRGH1 = 0x00;
  2954   001C9A  0E00               	movlw	0
  2955   001C9C  6E7D               	movwf	125,c	;volatile
  2956   001C9E                     
  2957                           ;mcc_generated_files/eusart1.c: 86:     EUSART1_SetFramingErrorHandler(EUSART1_DefaultFr
      +                          amingErrorHandler);
  2958   001C9E  0E00               	movlw	0
  2959   001CA0  6E01               	movwf	EUSART1_SetFramingErrorHandler@interruptHandler^0,c
  2960   001CA2  0E00               	movlw	0
  2961   001CA4  6E02               	movwf	(EUSART1_SetFramingErrorHandler@interruptHandler+1)^0,c
  2962   001CA6  ECFD  F00E         	call	_EUSART1_SetFramingErrorHandler	;wreg free
  2963   001CAA                     
  2964                           ;mcc_generated_files/eusart1.c: 87:     EUSART1_SetOverrunErrorHandler(EUSART1_DefaultOv
      +                          errunErrorHandler);
  2965   001CAA  0E00               	movlw	0
  2966   001CAC  6E01               	movwf	EUSART1_SetOverrunErrorHandler@interruptHandler^0,c
  2967   001CAE  0E00               	movlw	0
  2968   001CB0  6E02               	movwf	(EUSART1_SetOverrunErrorHandler@interruptHandler+1)^0,c
  2969   001CB2  ECF8  F00E         	call	_EUSART1_SetOverrunErrorHandler	;wreg free
  2970   001CB6                     
  2971                           ;mcc_generated_files/eusart1.c: 88:     EUSART1_SetErrorHandler(EUSART1_DefaultErrorHand
      +                          ler);
  2972   001CB6  0E00               	movlw	0
  2973   001CB8  6E01               	movwf	EUSART1_SetErrorHandler@interruptHandler^0,c
  2974   001CBA  0E00               	movlw	0
  2975   001CBC  6E02               	movwf	(EUSART1_SetErrorHandler@interruptHandler+1)^0,c
  2976   001CBE  EC02  F00F         	call	_EUSART1_SetErrorHandler	;wreg free
  2977   001CC2                     
  2978                           ;mcc_generated_files/eusart1.c: 90:     eusart1RxLastError.status = 0;
  2979   001CC2  0E00               	movlw	0
  2980   001CC4  6E50               	movwf	_eusart1RxLastError^0,c	;volatile
  2981   001CC6  0012               	return		;funcret
  2982   001CC8                     __end_of_EUSART1_Initialize:
  2983                           	callstack 0
  2984                           
  2985 ;; *************** function _EUSART1_SetOverrunErrorHandler *****************
  2986 ;; Defined at:
  2987 ;;		line 167 in file "mcc_generated_files/eusart1.c"
  2988 ;; Parameters:    Size  Location     Type
  2989 ;;  interruptHan    2    0[COMRAM] PTR FTN()void 
  2990 ;;		 -> EUSART1_DefaultOverrunErrorHandler(1), 
  2991 ;; Auto vars:     Size  Location     Type
  2992 ;;		None
  2993 ;; Return value:  Size  Location     Type
  2994 ;;                  1    wreg      void 
  2995 ;; Registers used:
  2996 ;;		wreg, status,2, status,0
  2997 ;; Tracked objects:
  2998 ;;		On entry : 0/0
  2999 ;;		On exit  : 0/0
  3000 ;;		Unchanged: 0/0
  3001 ;; Data sizes:     COMRAM   BANK0   BANK1   BANK2   BANK3   BANK4   BANK5   BANK6   BANK7   BANK8   BANK9  BANK10  BANK1
      +2  BANK13  BANK11  BANK14
  3002 ;;      Params:         2       0       0       0       0       0       0       0       0       0       0       0       
      +0       0       0       0
  3003 ;;      Locals:         0       0       0       0       0       0       0       0       0       0       0       0       
      +0       0       0       0
  3004 ;;      Temps:          0       0       0       0       0       0       0       0       0       0       0       0       
      +0       0       0       0
  3005 ;;      Totals:         2       0       0       0       0       0       0       0       0       0       0       0       
      +0       0       0       0
  3006 ;;Total ram usage:        2 bytes
  3007 ;; Hardware stack levels used: 1
  3008 ;; This function calls:
  3009 ;;		Nothing
  3010 ;; This function is called by:
  3011 ;;		_EUSART1_Initialize
  3012 ;; This function uses a non-reentrant model
  3013 ;;
  3014                           
  3015                           	psect	text18
  3016   001DF0                     __ptext18:
  3017                           	callstack 0
  3018   001DF0                     _EUSART1_SetOverrunErrorHandler:
  3019                           	callstack 28
  3020   001DF0                     
  3021                           ;mcc_generated_files/eusart1.c: 168:     EUSART1_OverrunErrorHandler = interruptHandler;
  3022   001DF0  C001  F047         	movff	EUSART1_SetOverrunErrorHandler@interruptHandler,_EUSART1_OverrunErrorHandler
  3023   001DF4  C002  F048         	movff	EUSART1_SetOverrunErrorHandler@interruptHandler+1,_EUSART1_OverrunErrorHandler+1
  3024   001DF8  0012               	return		;funcret
  3025   001DFA                     __end_of_EUSART1_SetOverrunErrorHandler:
  3026                           	callstack 0
  3027                           
  3028 ;; *************** function _EUSART1_SetFramingErrorHandler *****************
  3029 ;; Defined at:
  3030 ;;		line 163 in file "mcc_generated_files/eusart1.c"
  3031 ;; Parameters:    Size  Location     Type
  3032 ;;  interruptHan    2    0[COMRAM] PTR FTN()void 
  3033 ;;		 -> EUSART1_DefaultFramingErrorHandler(1), 
  3034 ;; Auto vars:     Size  Location     Type
  3035 ;;		None
  3036 ;; Return value:  Size  Location     Type
  3037 ;;                  1    wreg      void 
  3038 ;; Registers used:
  3039 ;;		wreg, status,2, status,0
  3040 ;; Tracked objects:
  3041 ;;		On entry : 0/0
  3042 ;;		On exit  : 0/0
  3043 ;;		Unchanged: 0/0
  3044 ;; Data sizes:     COMRAM   BANK0   BANK1   BANK2   BANK3   BANK4   BANK5   BANK6   BANK7   BANK8   BANK9  BANK10  BANK1
      +2  BANK13  BANK11  BANK14
  3045 ;;      Params:         2       0       0       0       0       0       0       0       0       0       0       0       
      +0       0       0       0
  3046 ;;      Locals:         0       0       0       0       0       0       0       0       0       0       0       0       
      +0       0       0       0
  3047 ;;      Temps:          0       0       0       0       0       0       0       0       0       0       0       0       
      +0       0       0       0
  3048 ;;      Totals:         2       0       0       0       0       0       0       0       0       0       0       0       
      +0       0       0       0
  3049 ;;Total ram usage:        2 bytes
  3050 ;; Hardware stack levels used: 1
  3051 ;; This function calls:
  3052 ;;		Nothing
  3053 ;; This function is called by:
  3054 ;;		_EUSART1_Initialize
  3055 ;; This function uses a non-reentrant model
  3056 ;;
  3057                           
  3058                           	psect	text19
  3059   001DFA                     __ptext19:
  3060                           	callstack 0
  3061   001DFA                     _EUSART1_SetFramingErrorHandler:
  3062                           	callstack 28
  3063   001DFA                     
  3064                           ;mcc_generated_files/eusart1.c: 164:     EUSART1_FramingErrorHandler = interruptHandler;
  3065   001DFA  C001  F049         	movff	EUSART1_SetFramingErrorHandler@interruptHandler,_EUSART1_FramingErrorHandler
  3066   001DFE  C002  F04A         	movff	EUSART1_SetFramingErrorHandler@interruptHandler+1,_EUSART1_FramingErrorHandler+1
  3067   001E02  0012               	return		;funcret
  3068   001E04                     __end_of_EUSART1_SetFramingErrorHandler:
  3069                           	callstack 0
  3070                           
  3071 ;; *************** function _EUSART1_SetErrorHandler *****************
  3072 ;; Defined at:
  3073 ;;		line 171 in file "mcc_generated_files/eusart1.c"
  3074 ;; Parameters:    Size  Location     Type
  3075 ;;  interruptHan    2    0[COMRAM] PTR FTN()void 
  3076 ;;		 -> EUSART1_DefaultErrorHandler(1), 
  3077 ;; Auto vars:     Size  Location     Type
  3078 ;;		None
  3079 ;; Return value:  Size  Location     Type
  3080 ;;                  1    wreg      void 
  3081 ;; Registers used:
  3082 ;;		wreg, status,2, status,0
  3083 ;; Tracked objects:
  3084 ;;		On entry : 0/0
  3085 ;;		On exit  : 0/0
  3086 ;;		Unchanged: 0/0
  3087 ;; Data sizes:     COMRAM   BANK0   BANK1   BANK2   BANK3   BANK4   BANK5   BANK6   BANK7   BANK8   BANK9  BANK10  BANK1
      +2  BANK13  BANK11  BANK14
  3088 ;;      Params:         2       0       0       0       0       0       0       0       0       0       0       0       
      +0       0       0       0
  3089 ;;      Locals:         0       0       0       0       0       0       0       0       0       0       0       0       
      +0       0       0       0
  3090 ;;      Temps:          0       0       0       0       0       0       0       0       0       0       0       0       
      +0       0       0       0
  3091 ;;      Totals:         2       0       0       0       0       0       0       0       0       0       0       0       
      +0       0       0       0
  3092 ;;Total ram usage:        2 bytes
  3093 ;; Hardware stack levels used: 1
  3094 ;; This function calls:
  3095 ;;		Nothing
  3096 ;; This function is called by:
  3097 ;;		_EUSART1_Initialize
  3098 ;; This function uses a non-reentrant model
  3099 ;;
  3100                           
  3101                           	psect	text20
  3102   001E04                     __ptext20:
  3103                           	callstack 0
  3104   001E04                     _EUSART1_SetErrorHandler:
  3105                           	callstack 28
  3106   001E04                     
  3107                           ;mcc_generated_files/eusart1.c: 172:     EUSART1_ErrorHandler = interruptHandler;
  3108   001E04  C001  F045         	movff	EUSART1_SetErrorHandler@interruptHandler,_EUSART1_ErrorHandler
  3109   001E08  C002  F046         	movff	EUSART1_SetErrorHandler@interruptHandler+1,_EUSART1_ErrorHandler+1
  3110   001E0C  0012               	return		;funcret
  3111   001E0E                     __end_of_EUSART1_SetErrorHandler:
  3112                           	callstack 0
  3113                           
  3114 ;; *************** function _PWM2_LoadDutyValue *****************
  3115 ;; Defined at:
  3116 ;;		line 82 in file "mcc_generated_files/pwm2.c"
  3117 ;; Parameters:    Size  Location     Type
  3118 ;;  dutyValue       2    0[COMRAM] unsigned short 
  3119 ;; Auto vars:     Size  Location     Type
  3120 ;;		None
  3121 ;; Return value:  Size  Location     Type
  3122 ;;                  1    wreg      void 
  3123 ;; Registers used:
  3124 ;;		wreg, status,2, status,0
  3125 ;; Tracked objects:
  3126 ;;		On entry : 0/0
  3127 ;;		On exit  : 0/0
  3128 ;;		Unchanged: 0/0
  3129 ;; Data sizes:     COMRAM   BANK0   BANK1   BANK2   BANK3   BANK4   BANK5   BANK6   BANK7   BANK8   BANK9  BANK10  BANK1
      +2  BANK13  BANK11  BANK14
  3130 ;;      Params:         2       0       0       0       0       0       0       0       0       0       0       0       
      +0       0       0       0
  3131 ;;      Locals:         0       0       0       0       0       0       0       0       0       0       0       0       
      +0       0       0       0
  3132 ;;      Temps:          2       0       0       0       0       0       0       0       0       0       0       0       
      +0       0       0       0
  3133 ;;      Totals:         4       0       0       0       0       0       0       0       0       0       0       0       
      +0       0       0       0
  3134 ;;Total ram usage:        4 bytes
  3135 ;; Hardware stack levels used: 1
  3136 ;; This function calls:
  3137 ;;		Nothing
  3138 ;; This function is called by:
  3139 ;;		_main
  3140 ;; This function uses a non-reentrant model
  3141 ;;
  3142                           
  3143                           	psect	text21
  3144   001CC8                     __ptext21:
  3145                           	callstack 0
  3146   001CC8                     _PWM2_LoadDutyValue:
  3147                           	callstack 30
  3148   001CC8                     
  3149                           ;mcc_generated_files/pwm2.c: 82: void PWM2_LoadDutyValue(uint16_t dutyValue);mcc_generat
      +                          ed_files/pwm2.c: 83: {;mcc_generated_files/pwm2.c: 85:     CCPR2L = ((dutyValue & 0x03FC
      +                          )>>2);
  3150   001CC8  C001  F003         	movff	PWM2_LoadDutyValue@dutyValue,??_PWM2_LoadDutyValue
  3151   001CCC  C002  F004         	movff	PWM2_LoadDutyValue@dutyValue+1,??_PWM2_LoadDutyValue+1
  3152   001CD0  90D8               	bcf	status,0,c
  3153   001CD2  3204               	rrcf	(??_PWM2_LoadDutyValue+1)^0,f,c
  3154   001CD4  3203               	rrcf	??_PWM2_LoadDutyValue^0,f,c
  3155   001CD6  90D8               	bcf	status,0,c
  3156   001CD8  3204               	rrcf	(??_PWM2_LoadDutyValue+1)^0,f,c
  3157   001CDA  3203               	rrcf	??_PWM2_LoadDutyValue^0,f,c
  3158   001CDC  5003               	movf	??_PWM2_LoadDutyValue^0,w,c
  3159   001CDE  010F               	movlb	15	; () banked
  3160   001CE0  6F51               	movwf	81,b	;volatile
  3161                           
  3162                           ;mcc_generated_files/pwm2.c: 88:     CCP2CON = ((uint8_t)(CCP2CON & 0xCF) | ((dutyValue 
      +                          & 0x0003)<<4));
  3163   001CE2  C001  F003         	movff	PWM2_LoadDutyValue@dutyValue,??_PWM2_LoadDutyValue
  3164   001CE6  0E03               	movlw	3
  3165   001CE8  1603               	andwf	??_PWM2_LoadDutyValue^0,f,c
  3166   001CEA  3A03               	swapf	??_PWM2_LoadDutyValue^0,f,c
  3167   001CEC  0EF0               	movlw	240
  3168   001CEE  1603               	andwf	??_PWM2_LoadDutyValue^0,f,c
  3169   001CF0  5150               	movf	80,w,b	;volatile
  3170   001CF2  0BCF               	andlw	207
  3171   001CF4  1003               	iorwf	??_PWM2_LoadDutyValue^0,w,c
  3172   001CF6  6F50               	movwf	80,b	;volatile
  3173   001CF8                     
  3174                           ; BSR set to: 15
  3175   001CF8  0012               	return		;funcret
  3176   001CFA                     __end_of_PWM2_LoadDutyValue:
  3177                           	callstack 0
  3178                           
  3179 ;; *************** function _EUSART1_Read *****************
  3180 ;; Defined at:
  3181 ;;		line 113 in file "mcc_generated_files/eusart1.c"
  3182 ;; Parameters:    Size  Location     Type
  3183 ;;		None
  3184 ;; Auto vars:     Size  Location     Type
  3185 ;;		None
  3186 ;; Return value:  Size  Location     Type
  3187 ;;                  1    wreg      unsigned char 
  3188 ;; Registers used:
  3189 ;;		wreg, status,2
  3190 ;; Tracked objects:
  3191 ;;		On entry : 0/0
  3192 ;;		On exit  : 0/0
  3193 ;;		Unchanged: 0/0
  3194 ;; Data sizes:     COMRAM   BANK0   BANK1   BANK2   BANK3   BANK4   BANK5   BANK6   BANK7   BANK8   BANK9  BANK10  BANK1
      +2  BANK13  BANK11  BANK14
  3195 ;;      Params:         0       0       0       0       0       0       0       0       0       0       0       0       
      +0       0       0       0
  3196 ;;      Locals:         0       0       0       0       0       0       0       0       0       0       0       0       
      +0       0       0       0
  3197 ;;      Temps:          0       0       0       0       0       0       0       0       0       0       0       0       
      +0       0       0       0
  3198 ;;      Totals:         0       0       0       0       0       0       0       0       0       0       0       0       
      +0       0       0       0
  3199 ;;Total ram usage:        0 bytes
  3200 ;; Hardware stack levels used: 1
  3201 ;; This function calls:
  3202 ;;		Nothing
  3203 ;; This function is called by:
  3204 ;;		_main
  3205 ;; This function uses a non-reentrant model
  3206 ;;
  3207                           
  3208                           	psect	text22
  3209   001D22                     __ptext22:
  3210                           	callstack 0
  3211   001D22                     _EUSART1_Read:
  3212                           	callstack 30
  3213   001D22                     l74:
  3214                           
  3215                           ;mcc_generated_files/eusart1.c: 115:     while(!PIR1bits.RC1IF)
  3216   001D22  AA9E               	btfss	158,5,c	;volatile
  3217   001D24  EF96  F00E         	goto	u621
  3218   001D28  EF98  F00E         	goto	u620
  3219   001D2C                     u621:
  3220   001D2C  EF91  F00E         	goto	l74
  3221   001D30                     u620:
  3222   001D30                     
  3223                           ;mcc_generated_files/eusart1.c: 119:     eusart1RxLastError.status = 0;
  3224   001D30  0E00               	movlw	0
  3225   001D32  6E50               	movwf	_eusart1RxLastError^0,c	;volatile
  3226   001D34                     
  3227                           ;mcc_generated_files/eusart1.c: 121:     if(1 == RCSTA1bits.OERR)
  3228   001D34  A2AB               	btfss	171,1,c	;volatile
  3229   001D36  EF9F  F00E         	goto	u631
  3230   001D3A  EFA1  F00E         	goto	u630
  3231   001D3E                     u631:
  3232   001D3E  EFA3  F00E         	goto	l1375
  3233   001D42                     u630:
  3234   001D42                     
  3235                           ;mcc_generated_files/eusart1.c: 122:     {;mcc_generated_files/eusart1.c: 125:         R
      +                          CSTA1bits.CREN = 0;
  3236   001D42  98AB               	bcf	171,4,c	;volatile
  3237                           
  3238                           ;mcc_generated_files/eusart1.c: 126:         RCSTA1bits.CREN = 1;
  3239   001D44  88AB               	bsf	171,4,c	;volatile
  3240   001D46                     l1375:
  3241                           
  3242                           ;mcc_generated_files/eusart1.c: 129:     return RCREG1;
  3243   001D46  50AE               	movf	174,w,c	;volatile
  3244   001D48  0012               	return		;funcret
  3245   001D4A                     __end_of_EUSART1_Read:
  3246                           	callstack 0
  3247                           
  3248                           	psect	rparam
  3249   000000                     
  3250                           	psect	config
  3251                           
  3252                           ;Config register CONFIG1L @ 0x300000
  3253                           ;	VREG Sleep Enable bit
  3254                           ;	RETEN = OFF, Ultra low-power regulator is Disabled (Controlled by REGSLP bit)
  3255                           ;	LF-INTOSC Low-power Enable bit
  3256                           ;	INTOSCSEL = HIGH, LF-INTOSC in High-power mode during Sleep
  3257                           ;	SOSC Power Selection and mode Configuration bits
  3258                           ;	SOSCSEL = DIG, Digital (SCLKI) mode
  3259                           ;	Extended Instruction Set
  3260                           ;	XINST = OFF, Disabled
  3261   300000                     	org	3145728
  3262   300000  15                 	db	21
  3263                           
  3264                           ;Config register CONFIG1H @ 0x300001
  3265                           ;	Oscillator
  3266                           ;	FOSC = INTIO2, Internal RC oscillator
  3267                           ;	PLL x4 Enable bit
  3268                           ;	PLLCFG = OFF, Disabled
  3269                           ;	Fail-Safe Clock Monitor
  3270                           ;	FCMEN = OFF, Disabled
  3271                           ;	Internal External Oscillator Switch Over Mode
  3272                           ;	IESO = OFF, Disabled
  3273   300001                     	org	3145729
  3274   300001  08                 	db	8
  3275                           
  3276                           ;Config register CONFIG2L @ 0x300002
  3277                           ;	Power Up Timer
  3278                           ;	PWRTEN = OFF, Disabled
  3279                           ;	Brown Out Detect
  3280                           ;	BOREN = SBORDIS, Enabled in hardware, SBOREN disabled
  3281                           ;	Brown-out Reset Voltage bits
  3282                           ;	BORV = 3, 1.8V
  3283                           ;	BORMV Power level
  3284                           ;	BORPWR = ZPBORMV, ZPBORMV instead of BORMV is selected
  3285   300002                     	org	3145730
  3286   300002  7F                 	db	127
  3287                           
  3288                           ;Config register CONFIG2H @ 0x300003
  3289                           ;	Watchdog Timer
  3290                           ;	WDTEN = OFF, WDT disabled in hardware; SWDTEN bit disabled
  3291                           ;	Watchdog Postscaler
  3292                           ;	WDTPS = 1048576, 1:1048576
  3293   300003                     	org	3145731
  3294   300003  50                 	db	80
  3295                           
  3296                           ; Padding undefined space
  3297   300004                     	org	3145732
  3298   300004  FF                 	db	255
  3299                           
  3300                           ;Config register CONFIG3H @ 0x300005
  3301                           ;	ECAN Mux bit
  3302                           ;	CANMX = PORTB, ECAN TX and RX pins are located on RB2 and RB3, respectively
  3303                           ;	MSSP address masking
  3304                           ;	MSSPMSK = MSK7, 7 Bit address masking mode
  3305                           ;	Master Clear Enable
  3306                           ;	MCLRE = ON, MCLR Enabled, RE3 Disabled
  3307   300005                     	org	3145733
  3308   300005  89                 	db	137
  3309                           
  3310                           ;Config register CONFIG4L @ 0x300006
  3311                           ;	Stack Overflow Reset
  3312                           ;	STVREN = ON, Enabled
  3313                           ;	Boot Block Size
  3314                           ;	BBSIZ = BB2K, 2K word Boot Block size
  3315                           ;	Background Debugger
  3316                           ;	DEBUG = 0x1, unprogrammed default
  3317   300006                     	org	3145734
  3318   300006  91                 	db	145
  3319                           
  3320                           ; Padding undefined space
  3321   300007                     	org	3145735
  3322   300007  FF                 	db	255
  3323                           
  3324                           ;Config register CONFIG5L @ 0x300008
  3325                           ;	Code Protect 00800-01FFF
  3326                           ;	CP0 = OFF, Disabled
  3327                           ;	Code Protect 02000-03FFF
  3328                           ;	CP1 = OFF, Disabled
  3329                           ;	Code Protect 04000-05FFF
  3330                           ;	CP2 = OFF, Disabled
  3331                           ;	Code Protect 06000-07FFF
  3332                           ;	CP3 = OFF, Disabled
  3333   300008                     	org	3145736
  3334   300008  0F                 	db	15
  3335                           
  3336                           ;Config register CONFIG5H @ 0x300009
  3337                           ;	Code Protect Boot
  3338                           ;	CPB = OFF, Disabled
  3339                           ;	Data EE Read Protect
  3340                           ;	CPD = OFF, Disabled
  3341   300009                     	org	3145737
  3342   300009  C0                 	db	192
  3343                           
  3344                           ;Config register CONFIG6L @ 0x30000A
  3345                           ;	Table Write Protect 00800-01FFF
  3346                           ;	WRT0 = OFF, Disabled
  3347                           ;	Table Write Protect 02000-03FFF
  3348                           ;	WRT1 = OFF, Disabled
  3349                           ;	Table Write Protect 04000-05FFF
  3350                           ;	WRT2 = OFF, Disabled
  3351                           ;	Table Write Protect 06000-07FFF
  3352                           ;	WRT3 = OFF, Disabled
  3353   30000A                     	org	3145738
  3354   30000A  0F                 	db	15
  3355                           
  3356                           ;Config register CONFIG6H @ 0x30000B
  3357                           ;	Config. Write Protect
  3358                           ;	WRTC = OFF, Disabled
  3359                           ;	Table Write Protect Boot
  3360                           ;	WRTB = OFF, Disabled
  3361                           ;	Data EE Write Protect
  3362                           ;	WRTD = OFF, Disabled
  3363   30000B                     	org	3145739
  3364   30000B  E0                 	db	224
  3365                           
  3366                           ;Config register CONFIG7L @ 0x30000C
  3367                           ;	Table Read Protect 00800-01FFF
  3368                           ;	EBTR0 = OFF, Disabled
  3369                           ;	Table Read Protect 02000-03FFF
  3370                           ;	EBTR1 = OFF, Disabled
  3371                           ;	Table Read Protect 04000-05FFF
  3372                           ;	EBTR2 = OFF, Disabled
  3373                           ;	Table Read Protect 06000-07FFF
  3374                           ;	EBTR3 = OFF, Disabled
  3375   30000C                     	org	3145740
  3376   30000C  0F                 	db	15
  3377                           
  3378                           ;Config register CONFIG7H @ 0x30000D
  3379                           ;	Table Read Protect Boot
  3380                           ;	EBTRB = OFF, Disabled
  3381   30000D                     	org	3145741
  3382   30000D  40                 	db	64
  3383                           tosu	equ	0xFFF
  3384                           tosh	equ	0xFFE
  3385                           tosl	equ	0xFFD
  3386                           stkptr	equ	0xFFC
  3387                           pclatu	equ	0xFFB
  3388                           pclath	equ	0xFFA
  3389                           pcl	equ	0xFF9
  3390                           tblptru	equ	0xFF8
  3391                           tblptrh	equ	0xFF7
  3392                           tblptrl	equ	0xFF6
  3393                           tablat	equ	0xFF5
  3394                           prodh	equ	0xFF4
  3395                           prodl	equ	0xFF3
  3396                           indf0	equ	0xFEF
  3397                           postinc0	equ	0xFEE
  3398                           postdec0	equ	0xFED
  3399                           preinc0	equ	0xFEC
  3400                           plusw0	equ	0xFEB
  3401                           fsr0h	equ	0xFEA
  3402                           fsr0l	equ	0xFE9
  3403                           wreg	equ	0xFE8
  3404                           indf1	equ	0xFE7
  3405                           postinc1	equ	0xFE6
  3406                           postdec1	equ	0xFE5
  3407                           preinc1	equ	0xFE4
  3408                           plusw1	equ	0xFE3
  3409                           fsr1h	equ	0xFE2
  3410                           fsr1l	equ	0xFE1
  3411                           bsr	equ	0xFE0
  3412                           indf2	equ	0xFDF
  3413                           postinc2	equ	0xFDE
  3414                           postdec2	equ	0xFDD
  3415                           preinc2	equ	0xFDC
  3416                           plusw2	equ	0xFDB
  3417                           fsr2h	equ	0xFDA
  3418                           fsr2l	equ	0xFD9
  3419                           status	equ	0xFD8

Data Sizes:
    Strings     52
    Constant    0
    Data        0
    BSS         38
    Persistent  6
    Stack       0

Auto Spaces:
    Space          Size  Autos    Used
    COMRAM           95     68      80
    BANK0           160      0      32
    BANK1           256      0       0
    BANK2           256      0       0
    BANK3           256      0       0
    BANK4           256      0       0
    BANK5           256      0       0
    BANK6           256      0       0
    BANK7           256      0       0
    BANK8           256      0       0
    BANK9           256      0       0
    BANK10          256      0       0
    BANK12          256      0       0
    BANK13          256      0       0
    BANK11          256      0       0
    BANK14           65      0       0

Pointer List with Targets:

    EUSART1_ErrorHandler	PTR FTN()void  size(2) Largest target is 1
		 -> EUSART1_DefaultErrorHandler(), NULL(), 

    EUSART1_FramingErrorHandler	PTR FTN()void  size(2) Largest target is 1
		 -> EUSART1_DefaultFramingErrorHandler(), NULL(), 

    EUSART1_OverrunErrorHandler	PTR FTN()void  size(2) Largest target is 1
		 -> EUSART1_DefaultOverrunErrorHandler(), NULL(), 

    EUSART1_SetErrorHandler@interruptHandler	PTR FTN()void  size(2) Largest target is 1
		 -> EUSART1_DefaultErrorHandler(), 

    EUSART1_SetFramingErrorHandler@interruptHandler	PTR FTN()void  size(2) Largest target is 1
		 -> EUSART1_DefaultFramingErrorHandler(), 

    EUSART1_SetOverrunErrorHandler@interruptHandler	PTR FTN()void  size(2) Largest target is 1
		 -> EUSART1_DefaultOverrunErrorHandler(), 

    fputc@fp	PTR struct _IO_FILE size(2) Largest target is 0
		 -> NULL(NULL[0]), 

    fputc@fp$.$buffer	PTR unsigned char  size(2) Largest target is 0

    fputc@fp$.$source	PTR const unsigned char  size(2) Largest target is 0

    printf@ap	PTR void [1] size(1) Largest target is 2
		 -> ?_printf(COMRAM[2]), 

    printf@fmt	PTR const unsigned char  size(1) Largest target is 52
		 -> STR_1(CODE[52]), 

    S997$buffer	PTR unsigned char  size(2) Largest target is 0

    S997$source	PTR const unsigned char  size(2) Largest target is 0

    vfpfcnvrt@ap	PTR PTR void  size(1) Largest target is 1
		 -> printf@ap(COMRAM[1]), 

    vfpfcnvrt@fmt	PTR PTR unsigned char  size(1) Largest target is 1
		 -> vfprintf@cfmt(COMRAM[1]), 

    vfpfcnvrt@fp	PTR struct _IO_FILE size(2) Largest target is 0
		 -> NULL(NULL[0]), 

    vfprintf@ap	PTR PTR void  size(1) Largest target is 1
		 -> printf@ap(COMRAM[1]), 

    vfprintf@cfmt	PTR unsigned char  size(1) Largest target is 52
		 -> STR_1(CODE[52]), 

    vfprintf@fmt	PTR const unsigned char  size(1) Largest target is 52
		 -> STR_1(CODE[52]), 

    vfprintf@fp	PTR struct _IO_FILE size(2) Largest target is 0
		 -> NULL(NULL[0]), 


Critical Paths under _main in COMRAM

    _main->_trouver_CCPR
    _trouver_CCPR->___flmul
    ___flmul->___fldiv
    _printf->_vfprintf
    _vfprintf->_vfpfcnvrt
    _vfpfcnvrt->_fputc
    _fputc->_putch
    _putch->_EUSART1_Write
    _EUSART1_Initialize->_EUSART1_SetErrorHandler
    _EUSART1_Initialize->_EUSART1_SetFramingErrorHandler
    _EUSART1_Initialize->_EUSART1_SetOverrunErrorHandler

Critical Paths under _main in BANK0

    None.

Critical Paths under _main in BANK1

    None.

Critical Paths under _main in BANK2

    None.

Critical Paths under _main in BANK3

    None.

Critical Paths under _main in BANK4

    None.

Critical Paths under _main in BANK5

    None.

Critical Paths under _main in BANK6

    None.

Critical Paths under _main in BANK7

    None.

Critical Paths under _main in BANK8

    None.

Critical Paths under _main in BANK9

    None.

Critical Paths under _main in BANK10

    None.

Critical Paths under _main in BANK12

    None.

Critical Paths under _main in BANK13

    None.

Critical Paths under _main in BANK11

    None.

Critical Paths under _main in BANK14

    None.

Call Graph Tables:

 ---------------------------------------------------------------------------------
 (Depth) Function   	        Calls       Base Space   Used Autos Params    Refs
 ---------------------------------------------------------------------------------
 (0) _main                                                 6     6      0    6770
                                             62 COMRAM     6     6      0
                       _EUSART1_Read
                      _EUSART1_Write
                 _PWM2_LoadDutyValue
                  _SYSTEM_Initialize
                             _printf
                       _trouver_CCPR
 ---------------------------------------------------------------------------------
 (1) _trouver_CCPR                                        12     8      4    4580
                                             50 COMRAM    12     8      4
                            ___fldiv
                             ___flge
                            ___flmul
                            ___fltol
 ---------------------------------------------------------------------------------
 (2) ___fltol                                             10     6      4     305
                                              0 COMRAM    10     6      4
 ---------------------------------------------------------------------------------
 (2) ___flmul                                             25    17      8    1896
                                             25 COMRAM    25    17      8
                            ___fldiv (ARG)
 ---------------------------------------------------------------------------------
 (2) ___flge                                              12     4      8     486
                                              0 COMRAM    12     4      8
 ---------------------------------------------------------------------------------
 (2) ___fldiv                                             25    17      8    1551
                                              0 COMRAM    25    17      8
 ---------------------------------------------------------------------------------
 (1) _printf                                               4     3      1    1495
                                             20 COMRAM     2     1      1
                           _vfprintf
 ---------------------------------------------------------------------------------
 (2) _vfprintf                                             5     1      4    1367
                                             15 COMRAM     5     1      4
                          _vfpfcnvrt
 ---------------------------------------------------------------------------------
 (3) _vfpfcnvrt                                            9     5      4    1020
                                             11 COMRAM     4     0      4
                              _fputc
 ---------------------------------------------------------------------------------
 (4) _fputc                                                9     5      4     660
                                              2 COMRAM     9     5      4
                              _putch
 ---------------------------------------------------------------------------------
 (5) _putch                                                1     1      0      30
                                              1 COMRAM     1     1      0
                      _EUSART1_Write
 ---------------------------------------------------------------------------------
 (6) _EUSART1_Write                                        1     1      0      15
                                              0 COMRAM     1     1      0
 ---------------------------------------------------------------------------------
 (1) _SYSTEM_Initialize                                    0     0      0     294
                 _EUSART1_Initialize
              _OSCILLATOR_Initialize
             _PIN_MANAGER_Initialize
                    _PWM2_Initialize
                    _TMR2_Initialize
 ---------------------------------------------------------------------------------
 (2) _TMR2_Initialize                                      0     0      0       0
 ---------------------------------------------------------------------------------
 (2) _PWM2_Initialize                                      0     0      0       0
 ---------------------------------------------------------------------------------
 (2) _PIN_MANAGER_Initialize                               0     0      0       0
 ---------------------------------------------------------------------------------
 (2) _OSCILLATOR_Initialize                                0     0      0       0
 ---------------------------------------------------------------------------------
 (2) _EUSART1_Initialize                                   0     0      0     294
            _EUSART1_SetErrorHandler
     _EUSART1_SetFramingErrorHandler
     _EUSART1_SetOverrunErrorHandler
 ---------------------------------------------------------------------------------
 (3) _EUSART1_SetOverrunErrorHandler                       2     0      2      98
                                              0 COMRAM     2     0      2
 ---------------------------------------------------------------------------------
 (3) _EUSART1_SetFramingErrorHandler                       2     0      2      98
                                              0 COMRAM     2     0      2
 ---------------------------------------------------------------------------------
 (3) _EUSART1_SetErrorHandler                              2     0      2      98
                                              0 COMRAM     2     0      2
 ---------------------------------------------------------------------------------
 (1) _PWM2_LoadDutyValue                                   4     2      2     272
                                              0 COMRAM     4     2      2
 ---------------------------------------------------------------------------------
 (1) _EUSART1_Read                                         0     0      0       0
 ---------------------------------------------------------------------------------
 Estimated maximum stack depth 6
 ---------------------------------------------------------------------------------

 Call Graph Graphs:

 _main (ROOT)
   _EUSART1_Read
   _EUSART1_Write
   _PWM2_LoadDutyValue
   _SYSTEM_Initialize
     _EUSART1_Initialize
       _EUSART1_SetErrorHandler
       _EUSART1_SetFramingErrorHandler
       _EUSART1_SetOverrunErrorHandler
     _OSCILLATOR_Initialize
     _PIN_MANAGER_Initialize
     _PWM2_Initialize
     _TMR2_Initialize
   _printf
     _vfprintf
       _vfpfcnvrt
         _fputc
           _putch
             _EUSART1_Write
   _trouver_CCPR
     ___fldiv
     ___flge
     ___flmul
       ___fldiv (ARG)
     ___fltol

 Address spaces:
Name               Size   Autos  Total    Cost      Usage
BIGRAM             E40      0       0      48        0.0%
EEDATA             400      0       0       0        0.0%
BITBIGSFRl         10F      0       0      35        0.0%
BITBANK13          100      0       0      45        0.0%
BANK13             100      0       0      22        0.0%
BITBANK12          100      0       0      44        0.0%
BANK12             100      0       0      21        0.0%
BITBANK11          100      0       0      42        0.0%
BANK11             100      0       0      43        0.0%
BITBANK10          100      0       0      19        0.0%
BANK10             100      0       0      20        0.0%
BITBANK9           100      0       0      41        0.0%
BANK9              100      0       0      18        0.0%
BITBANK8           100      0       0      40        0.0%
BANK8              100      0       0      17        0.0%
BITBANK7           100      0       0      39        0.0%
BANK7              100      0       0      16        0.0%
BITBANK6           100      0       0      38        0.0%
BANK6              100      0       0      15        0.0%
BITBANK5           100      0       0      37        0.0%
BANK5              100      0       0      14        0.0%
BITBANK4           100      0       0      12        0.0%
BANK4              100      0       0      13        0.0%
BITBANK3           100      0       0      10        0.0%
BANK3              100      0       0      11        0.0%
BITBANK2           100      0       0       8        0.0%
BANK2              100      0       0       9        0.0%
BITBANK1           100      0       0       6        0.0%
BANK1              100      0       0       7        0.0%
BITBANK0            A0      0       0       4        0.0%
BANK0               A0      0      20       5       20.0%
BITCOMRAM           5F      0       0       0        0.0%
COMRAM              5F     44      50       1       84.2%
BITBANK14           41      0       0      46        0.0%
BANK14              41      0       0      47        0.0%
BITBIGSFRhllh       1F      0       0      33        0.0%
BITBIGSFRhhhhhh     1D      0       0      24        0.0%
BITBIGSFRhhhhhl     1A      0       0      26        0.0%
BITBIGSFRhhhhhh      D      0       0      23        0.0%
BITBIGSFRhlhl        B      0       0      32        0.0%
BITBIGSFRhhlh        8      0       0      28        0.0%
BITBIGSFRhlll        8      0       0      34        0.0%
BITBIGSFRhlhhl       6      0       0      31        0.0%
BITBIGSFRhhhhhh      5      0       0      25        0.0%
BITBIGSFRhlhhh       4      0       0      30        0.0%
BITBIGSFRhhhl        3      0       0      27        0.0%
BITBIGSFRhhllh       2      0       0      29        0.0%
BIGSFR               0      0       0     200        0.0%
BITSFR_2             0      0       0     200        0.0%
SFR_2                0      0       0     200        0.0%
BITSFR_1             0      0       0     200        0.0%
SFR_1                0      0       0     200        0.0%
BITSFR               0      0       0     200        0.0%
SFR                  0      0       0     200        0.0%
STACK                0      0       0       2        0.0%
NULL                 0      0       0       0        0.0%
ABS                  0      0      70      36        0.0%
DATA                 0      0      70       3        0.0%
CODE                 0      0       0       0        0.0%


Microchip Technology PIC18 Macro Assembler V2.45 build 20230818022343 
Symbol Table                                                                                   Tue Feb 04 12:03:06 2025

                                  ___fldiv@aexp 0019                                    ___fldiv@bexp 0018  
                                  ___fldiv@sign 0011                                              l11 1DC2  
                                            l14 1CF8                                              l57 1CC6  
                                            l81 1D88                                              l74 1D22  
                                            l84 1D9A                                              l78 1D48  
                                            l87 1DEE                                              l99 1E02  
                                            u10 1D96                                              u11 1D92  
                                           l102 1DF8                                             l105 1E0C  
                                           l118 1DE4                                             l216 1D20  
                                           l161 1DD4                                             l158 1DB0  
                                           l191 184A                                             l519 1950  
                                           l900 1D84                                             l804 16F8  
                                           l492 1A54                                             l806 1558  
                                           l815 159E                                             l487 1A0E  
                                           l840 135E                                             l817 1616  
                                           l809 151C                                             l818 1604  
                                           l923 1C46                                             l843 11F0  
                                           l836 0FFA                                             l941 1B1E  
                                           l853 1320                                             l845 1268  
                                           l846 1256                                             l951 1D88  
                                           l953 1D96                                             l929 1C88  
                                           l955 1DE8                                             l995 1DB2  
                                           l997 1DC0                                             _PR2 0FCB  
                                           u620 1D30                                             u700 1A68  
                                           u621 1D2C                                             u701 1A64  
                                           u630 1D42                                             u710 1A7A  
                                           u631 1D3E                                             u711 1A76  
                                           u720 1AA2                                             u800 1402  
                                           u721 1A9E                                             u801 13FE  
                                           u730 1AD8                                             u810 1442  
                                           u731 1AD4                                             u811 143E  
                                           u740 1BFC                                             u900 15CE  
                                           u820 1482                                             u741 1BF8  
                                           u901 15CA                                             u821 147E  
                                           u910 15FC                                             u830 14F8  
                                           u750 137A                                             u911 15F8  
                                           u831 14F4                                             u751 1376  
                                           u920 1612                                             u840 151A  
                                           u760 138C                                             u921 160E  
                                           u841 1516                                             u761 1388  
                                           u930 1626                                             u850 1544  
                                           u770 139C                                             u931 1622  
                                           u851 1540                                             u771 1398  
                                           u940 1640                                             u860 1568  
                                           u780 13E0                                             u941 163C  
                                           u861 1564                                             u781 13DC  
                                           u950 1688                                             u870 157E  
                                           u790 13F2                                             u951 1684  
                                           u871 157A                                             u791 13EE  
                                           u960 16B8                                             u880 159C  
                                           u961 16B4                                             u881 1598  
                                           u970 16E6                                             u890 15BC  
                                           u971 16E2                                             u891 15B8  
                                           u980 0F50                                             u981 0F4C  
                                           u990 0F62                                             u991 0F5E  
                               _TMR2_Initialize 1DD6                                             wreg 0FE8  
                                    _TXSTA1bits 0FAC                                    ___flmul@aexp 002B  
                                  ___flmul@bexp 002C                                    ___flmul@sign 0026  
                                  ___flmul@temp 0031                                    ___flmul@prod 002D  
                                  ___fltol@exp1 000A                                            l1011 1DDE  
                                          l1013 1CFA                                            l1015 1D0A  
                                          l1017 1D1E                                            l1009 1DD6  
                                          l1019 1DC4                                            l1501 1DFA  
                                          l1503 1DF0                                            l1511 1C04  
                                          l1505 1E04                                            l1513 1C10  
                                          l1601 14E0                                            l1371 1D34  
                                          l1531 1CB6                                            l1515 1C14  
                                          l1507 1BDA                                            l1611 1526  
                                          l1603 14E8                                            l1373 1D42  
                                          l1533 1CC2                                            l1525 1C8A  
                                          l1509 1BFC                                            l1621 157E  
                                          l1613 1544                                            l1605 14F8  
                                          l1541 137C                                            l1701 0FD4  
                                          l1375 1D46                                            l1367 1D22  
                                          l1527 1C9E                                            l1519 1C20  
                                          l1631 15BC                                            l1623 1584  
                                          l1615 1546                                            l1607 150C  
                                          l1543 138C                                            l1551 13B6  
                                          l1535 1360                                            l1703 0FE4  
                                          l1369 1D30                                            l1529 1CAA  
                                          l1641 1626                                            l1633 15C0  
                                          l1625 158E                                            l1617 1556  
                                          l1609 151A                                            l1561 13E2  
                                          l1553 13C6                                            l1545 139C  
                                          l1537 136C                                            l1721 1066  
                                          l1713 102E                                            l1705 0FEA  
                                          l1491 1A7A                                            l1651 1688  
                                          l1643 1632                                            l1635 15CE  
                                          l1627 159C                                            l1619 1568  
                                          l1563 13F2                                            l1571 141C  
                                          l1555 13CC                                            l1547 13AC  
                                          l1539 137A                                            l1811 19CE  
                                          l1803 1952                                            l1731 10B0  
                                          l1723 107E                                            l1715 103A  
                                          l1707 100A                                            l1493 1A84  
                                          l1901 1D6C                                            l1661 16E6  
                                          l1653 169E                                            l1645 1640  
                                          l1637 15FC                                            l1629 15AE  
                                          l1581 145E                                            l1573 142C  
                                          l1565 1402                                            l1557 13D2  
                                          l1549 13AE                                            l1821 1A52  
                                          l1813 19DC                                            l1805 1980  
                                          l1741 1106                                            l1733 10C0  
                                          l1725 108A                                            l1717 1044  
                                          l1709 101A                                            l1495 1AA2  
                                          l1487 1A56                                            l1903 1D70  
                                          l1663 16EC                                            l1655 16B8  
                                          l1647 166A                                            l1575 1442  
                                          l1567 1412                                            l1559 13E0  
                                          l1815 19EE                                            l1807 1990  
                                          l1751 11AA                                            l1743 1122  
                                          l1735 10CC                                            l1727 1096  
                                          l1719 105A                                            l1831 1876  
                                          l1911 1B40                                            l1497 1AD8  
                                          l1489 1A68                                            l1665 16EE  
                                          l1657 16D4                                            l1649 166E  
                                          l1593 1496                                            l1577 1452  
                                          l1585 1472                                            l1569 1414  
                                          l1817 19FC                                            l1809 19BE  
                                          l1761 1200                                            l1753 11B8  
                                          l1745 112E                                            l1737 10DC  
                                          l1729 10A4                                            l1681 0F62  
                                          l1673 0F36                                            l1841 18C4  
                                          l1833 18A0                                            l1825 184C  
                                          l1913 1B4C                                            l1659 16D8  
                                          l1595 14B0                                            l1587 1482  
                                          l1579 145A                                            l1819 1A4C  
                                          l1763 120E                                            l1755 11D6  
                                          l1747 114A                                            l1739 10F6  
                                          l1691 0F9E                                            l1683 0F72  
                                          l1675 0F42                                            l1851 18F0  
                                          l1835 18A2                                            l1827 1862  
                                          l1923 1B8A                                            l1915 1B54  
                                          l1907 1B20                                            l1597 14C0  
                                          l1589 1482                                            l1773 1278  
                                          l1781 12C0                                            l1765 1212  
                                          l1757 11E0                                            l1749 1174  
                                          l1693 0FA4                                            l1685 0F82  
                                          l1677 0F50                                            l1861 1920  
                                          l1837 18B2                                            l1917 1B60  
                                          l1909 1B24                                            l1871 1C50  
                                          l1599 14D0                                            l1791 1334  
                                          l1783 12DA                                            l1775 1284  
                                          l1767 1220                                            l1759 11EE  
                                          l1695 0FB2                                            l1687 0F88  
                                          l1679 0F52                                            l1863 1930  
                                          l1847 18DC                                            l1839 18B6  
                                          l1919 1B6A                                            l1881 1D9C  
                                          l1873 1C64                                            l1793 1342  
                                          l1785 12EE                                            l1777 1292  
                                          l1769 124E                                            l1697 0FB4  
                                          l1689 0F98                                            l1865 1940  
                                          l1857 1904                                            l1849 18E6  
                                          l1929 1BAA                                            l1883 1DAC  
                                          l1875 1C80                                            l1795 1344  
                                          l1787 1308                                            l1779 12BC  
                                          l1699 0FC4                                            l1859 1910  
                                          l1891 176E                                            l1955 1BC0  
                                          l1869 1C48                                            l1789 1324  
                                          l1797 134A                                            l1893 177E  
                                          l1885 16FA                                            l1879 1CC8  
                                          l1799 134E                                            l1895 17D6  
                                          l1887 172C                                            l1897 182E  
                                          l1889 173C                                            STR_1 0F01  
                                          u1000 0F72                                            u1001 0F6E  
                                          u1010 0FB2                                            u1011 0FAE  
                                          u1100 124E                                            u1020 0FC4  
                                          u1101 124A                                            u1021 0FC0  
                                          u1110 1264                                            u1030 0FD4  
                                          u1111 1260                                            u1031 0FD0  
                                          u1200 19FC                                            u1120 1278  
                                          u1040 100A                                            u1201 19F8  
                                          u1121 1274                                            u1041 1006  
                                          u1210 1A4C                                            u1130 1292  
                                          u1050 101A                                            u1211 1A48  
                                          u1131 128E                                            u1051 1016  
                                          u1140 12DA                                            u1060 1194  
                                          u1220 1862                                            u1300 172C  
                                          u1141 12D6                                            u1221 185E  
                                          u1301 1728                                            u1150 1308  
                                          u1070 11EE                                            u1230 1896  
                                          u1310 176E                                            u1151 1304  
                                          u1071 11EA                                            u1311 176A  
                                          u1160 1342                                            u1080 120E  
                                          u1240 18C4                                            u1161 133E  
                                          u1081 120A                                            u1065 118A  
                                          u1241 18C0                                            u1170 1980  
                                          u1090 1220                                            u1250 18D8  
                                          u1171 197C                                            u1091 121C  
                                          u1251 18D4                                            u1235 188C  
                                          u1180 19BE                                            u1260 1900  
                                          u1181 19BA                                            u1261 18FC  
                                          _LATA 0F89                                            u1190 19DC  
                                          u1270 1920                                            _LATB 0F8A  
                                          u1191 19D8                                            u1271 191C  
                                          _LATC 0F8B                                            u1280 1930  
                                          u1281 192C                                            u1290 1C80  
                                          u1291 1C7C                                            _TMR2 0FCC  
                                          _WPUB 0F5B                                   _EUSART1_Write 1D86  
                                          _dbuf 0060                                            _main 1B20  
                                 ?_EUSART1_Read 0001                                            _prec 004D  
                                          fsr1h 0FE2                                            fsr2h 0FDA  
                                          indf2 0FDF                                            fsr1l 0FE1  
                                          fsr2l 0FD9                                            prodh 0FF4  
                                          prodl 0FF3                                            start 0000  
                               ___fldiv@new_exp 0012                                    ___param_bank 0000  
                              trouver_CCPR@ccpr 0037                                    main@ccpr_val 0043  
                       __end_of_PWM2_Initialize 1DC4                   __end_of_OSCILLATOR_Initialize 1DD6  
                                 ___fltol@sign1 0009                                           ?_main 0001  
                               __end_of___fldiv 16FA                                 __end_of___flmul 1360  
                               __end_of___fltol 1952                                           _T2CON 0FCA  
                                  vfpfcnvrt@fmt 000E                                           _TRISA 0F92  
                                         _TRISB 0F93                                           _TRISC 0F94  
                                         _flags 004F                                           _fputc 1A56  
                                         _width 004B                                           _putch 1DE6  
                                ?_EUSART1_Write 0001                                           tablat 0FF5  
                                ??_EUSART1_Read 0001                                           status 0FD8  
            _EUSART1_DefaultFramingErrorHandler 0000                                 __initialization 1D4A  
                    __end_of_EUSART1_Initialize 1CC8                                    __end_of_main 1BDA  
                                 main@caractere 0041                         __end_of_TMR2_Initialize 1DE6  
                                        ??_main 003F                                   __activetblptr 0002  
                                        ?_fputc 0003                                          _CCPR2H 0F52  
                                        _CCPR2L 0F51                                          _ANCON0 0F5D  
                                        _ANCON1 0F5C                                          ?_putch 0001  
                                        _RCREG1 0FAE                                          _RCSTA1 0FAB  
                                        _OSCCON 0FD3                                          _SPBRG1 0FAF  
                                  _trouver_CCPR 16FA                                          _TXREG1 0FAD  
                                        _TXSTA1 0FAC                                    vfprintf@cfmt 0014  
                                        ___flge 1952                                       ??___fldiv 0009  
                                     ??___flmul 0022                                       ??___fltol 0005  
                      ?_EUSART1_SetErrorHandler 0001                                ?_PWM2_Initialize 0001  
                                        clear_0 1D50                                          isa$std 0001  
                                        _printf 1D6C                ??_EUSART1_SetOverrunErrorHandler 0003  
               ?_EUSART1_SetOverrunErrorHandler 0001                                          fputc@c 0003  
                                  __mediumconst 0000                                          tblptrh 0FF7  
                                        tblptrl 0FF6                                          tblptru 0FF8  
                              __end_of_vfprintf 1C8A                                 ??_EUSART1_Write 0001  
                                    ___flge@ff1 0001                                      ___flge@ff2 0005  
                             _SYSTEM_Initialize 1D9C                                      __accesstop 0060  
                       __end_of__initialization 1D62                              ?_SYSTEM_Initialize 0001  
                    __end_of_PWM2_LoadDutyValue 1CFA                                   ___rparam_used 0001  
                                    ___fltol@f1 0001                                  __pcstackCOMRAM 0001  
                           ??_SYSTEM_Initialize 0003                                   __end_of_fputc 1B20  
                                 __end_of_putch 1DF0                           trouver_CCPR@dutyCycle 0033  
                              ?_TMR2_Initialize 0001                            __end_of_EUSART1_Read 1D4A  
                                       ??_fputc 0007                       __end_of_SYSTEM_Initialize 1DB2  
                                       ??_putch 0002                                      __pbssBANK0 0060  
                                    __pnvCOMRAM 0045                 __end_of_EUSART1_SetErrorHandler 1E0E  
                                       ?___flge 0001                                         _CCP2CON 0F50  
                                       ?_printf 0015          __end_of_EUSART1_SetFramingErrorHandler 1E04  
                _EUSART1_SetFramingErrorHandler 1DFA                                         _REFOCON 0F9A  
                                       _OSCCON2 0FD2                                         _OSCTUNE 0F9B  
                                       _SPBRGH1 0F7D                                         __Hparam 0000  
                                       __Lparam 0000                                         ___fldiv 1360  
                                       ___flmul 0F36                                         ___fltol 184C  
                                     ?_vfprintf 0010                                    __psmallconst 0F00  
                                       __pcinit 1D4A                                         __ramtop 0F00  
                                       __ptext0 1B20                                         __ptext1 16FA  
                                       __ptext2 184C                                         __ptext3 0F36  
                                       __ptext4 1952                                         __ptext5 1360  
                                       __ptext6 1D6C                                         __ptext7 1C48  
                                       __ptext8 1BDA                                         __ptext9 1A56  
                         _OSCILLATOR_Initialize 1DC4                                       _T2CONbits 0FCA  
                            _EUSART1_Initialize 1C8A                        ??_PIN_MANAGER_Initialize 0001  
                          end_of_initialization 1D62                             ?_EUSART1_Initialize 0001  
                                       fputc@fp 0005                                   __Lmediumconst 0000  
                   _EUSART1_OverrunErrorHandler 0047                               __end_of_vfpfcnvrt 1C48  
                                       postdec2 0FDD                                         postinc0 0FEE  
                                       postinc1 0FE6                                         postinc2 0FDE  
                                    ??_vfprintf 0014                            ??_EUSART1_Initialize 0003  
                                   ___fldiv@grs 0014                                     ___fldiv@rem 000D  
                           EUSART1_Write@txData 0001                                     ___flmul@grs 0027  
                                  _EUSART1_Read 1D22                                  __end_of___flge 1A56  
                                   vfpfcnvrt@ap 000F                                     vfpfcnvrt@fp 000C  
                            _PWM2_LoadDutyValue 1CC8                          ?_OSCILLATOR_Initialize 0001  
                                __end_of_printf 1D86                             start_initialization 1D4A  
                           ?_PWM2_LoadDutyValue 0001                                     putch@txData 0002  
                         __end_of_EUSART1_Write 1D9C                            ??_PWM2_LoadDutyValue 0003  
                                   vfprintf@fmt 0012                                        ??___flge 0009  
                   PWM2_LoadDutyValue@dutyValue 0001                                     _CCPTMRSbits 0F99  
                                      ??_printf 0016                                       ___fldiv@a 0005  
                                     ___fldiv@b 0001                                       ___flmul@a 001E  
                                     ___flmul@b 001A                                     __pbssCOMRAM 004B  
              ??_EUSART1_SetFramingErrorHandler 0003                 ?_EUSART1_SetFramingErrorHandler 0001  
                        _PIN_MANAGER_Initialize 1CFA                                        ?___fldiv 0001  
                                      ?___flmul 001A                                        ?___fltol 0001  
                                   __smallconst 0F00                                        _BAUDCON1 0FA7  
            _EUSART1_DefaultOverrunErrorHandler 0000                            _EUSART1_ErrorHandler 0045  
                       _EUSART1_SetErrorHandler 1E04                                   ?_trouver_CCPR 0033  
                             ??_PWM2_Initialize 0001         EUSART1_SetErrorHandler@interruptHandler 0001  
                                      _PIR1bits 0F9E                                       _vfpfcnvrt 1BDA  
                                   _INTCON2bits 0FF1                                  ??_trouver_CCPR 0037  
                             ??_TMR2_Initialize 0001                                        __Hrparam 0000  
                                    vfprintf@ap 0013                                        __Lrparam 0000  
                                    vfprintf@fp 0010                         ??_OSCILLATOR_Initialize 0001  
                                    ?_vfpfcnvrt 000C                       ??_EUSART1_SetErrorHandler 0003  
                   _EUSART1_DefaultErrorHandler 0000                                        __ptext10 1DE6  
                                      __ptext11 1D86                                        __ptext20 1E04  
                                      __ptext12 1D9C                                        __ptext21 1CC8  
                                      __ptext13 1DD6                                        __ptext22 1D22  
                                      __ptext14 1DB2                                        __ptext15 1CFA  
                                      __ptext16 1DC4                                        __ptext17 1C8A  
                                      __ptext18 1DF0                                        __ptext19 1DFA  
EUSART1_SetOverrunErrorHandler@interruptHandler 0001                                        isa$xinst 0000  
                                      _vfprintf 1C48                                       printf@fmt 0015  
                   _EUSART1_FramingErrorHandler 0049                               _trouver_CCPR$1317 003B  
                                    _INTCONbits 0FF2                         ?_PIN_MANAGER_Initialize 0001  
        __end_of_EUSART1_SetOverrunErrorHandler 1DFA                  _EUSART1_SetOverrunErrorHandler 1DF0  
                                    _RCSTA1bits 0FAB                                        printf@ap 0016  
EUSART1_SetFramingErrorHandler@interruptHandler 0001                                     ??_vfpfcnvrt 0010  
                          __end_of_trouver_CCPR 184C                              _eusart1RxLastError 0050  
                               _PWM2_Initialize 1DB2                  __end_of_PIN_MANAGER_Initialize 1D22  
